	.text
	.file	"core.7e47091c-cgu.0"
	.section	.text._ZN4core4hint9spin_loop17habae36529d955e92E,"ax",@progbits
	.globl	_ZN4core4hint9spin_loop17habae36529d955e92E
	.p2align	4, 0x90
	.type	_ZN4core4hint9spin_loop17habae36529d955e92E,@function
_ZN4core4hint9spin_loop17habae36529d955e92E:
	pushq	%rax
	#APP

	pause

	#NO_APP
	popq	%rax
	retq
.Lfunc_end0:
	.size	_ZN4core4hint9spin_loop17habae36529d955e92E, .Lfunc_end0-_ZN4core4hint9spin_loop17habae36529d955e92E

	.section	.text.memset,"ax",@progbits
	.globl	memset
	.p2align	4, 0x90
	.type	memset,@function
memset:
	movq	%rdi, %rax
	testq	%rdx, %rdx
	jle	.LBB1_3
	addq	%rax, %rdx
	.p2align	4, 0x90
.LBB1_2:
	movb	%sil, (%rax)
	addq	$1, %rax
	cmpq	%rdx, %rax
	jb	.LBB1_2
.LBB1_3:
	retq
.Lfunc_end1:
	.size	memset, .Lfunc_end1-memset

	.section	.text._ZN4core5panic5panic17h6dbea6e1214c1483E,"ax",@progbits
	.globl	_ZN4core5panic5panic17h6dbea6e1214c1483E
	.p2align	4, 0x90
	.type	_ZN4core5panic5panic17h6dbea6e1214c1483E,@function
_ZN4core5panic5panic17h6dbea6e1214c1483E:
	subq	$40, %rsp
	movq	%rdi, 8(%rsp)
	movq	%rsi, 16(%rsp)
	movq	$0, 24(%rsp)
	movq	%rdx, 32(%rsp)
	leaq	8(%rsp), %rdi
	callq	rust_begin_unwind@PLT
	ud2
.Lfunc_end2:
	.size	_ZN4core5panic5panic17h6dbea6e1214c1483E, .Lfunc_end2-_ZN4core5panic5panic17h6dbea6e1214c1483E

	.section	".text._ZN4core3str21_$LT$impl$u20$str$GT$5chars17hbde54eb9c6fa9e27E","ax",@progbits
	.globl	_ZN4core3str21_$LT$impl$u20$str$GT$5chars17hbde54eb9c6fa9e27E
	.p2align	4, 0x90
	.type	_ZN4core3str21_$LT$impl$u20$str$GT$5chars17hbde54eb9c6fa9e27E,@function
_ZN4core3str21_$LT$impl$u20$str$GT$5chars17hbde54eb9c6fa9e27E:
	movq	%rsi, %rdx
	movq	%rdi, %rax
	retq
.Lfunc_end3:
	.size	_ZN4core3str21_$LT$impl$u20$str$GT$5chars17hbde54eb9c6fa9e27E, .Lfunc_end3-_ZN4core3str21_$LT$impl$u20$str$GT$5chars17hbde54eb9c6fa9e27E

	.section	".text._ZN4core3str21_$LT$impl$u20$str$GT$6as_ptr17h6b687b8e59779ab0E","ax",@progbits
	.globl	_ZN4core3str21_$LT$impl$u20$str$GT$6as_ptr17h6b687b8e59779ab0E
	.p2align	4, 0x90
	.type	_ZN4core3str21_$LT$impl$u20$str$GT$6as_ptr17h6b687b8e59779ab0E,@function
_ZN4core3str21_$LT$impl$u20$str$GT$6as_ptr17h6b687b8e59779ab0E:
	movq	%rdi, %rax
	retq
.Lfunc_end4:
	.size	_ZN4core3str21_$LT$impl$u20$str$GT$6as_ptr17h6b687b8e59779ab0E, .Lfunc_end4-_ZN4core3str21_$LT$impl$u20$str$GT$6as_ptr17h6b687b8e59779ab0E

	.section	".text._ZN4core3str21_$LT$impl$u20$str$GT$10as_mut_ptr17h832d883fed4ae03dE","ax",@progbits
	.globl	_ZN4core3str21_$LT$impl$u20$str$GT$10as_mut_ptr17h832d883fed4ae03dE
	.p2align	4, 0x90
	.type	_ZN4core3str21_$LT$impl$u20$str$GT$10as_mut_ptr17h832d883fed4ae03dE,@function
_ZN4core3str21_$LT$impl$u20$str$GT$10as_mut_ptr17h832d883fed4ae03dE:
	movq	%rdi, %rax
	retq
.Lfunc_end5:
	.size	_ZN4core3str21_$LT$impl$u20$str$GT$10as_mut_ptr17h832d883fed4ae03dE, .Lfunc_end5-_ZN4core3str21_$LT$impl$u20$str$GT$10as_mut_ptr17h832d883fed4ae03dE

	.section	".text._ZN4core3str21_$LT$impl$u20$str$GT$8is_empty17h27e1949a27caa1f1E","ax",@progbits
	.globl	_ZN4core3str21_$LT$impl$u20$str$GT$8is_empty17h27e1949a27caa1f1E
	.p2align	4, 0x90
	.type	_ZN4core3str21_$LT$impl$u20$str$GT$8is_empty17h27e1949a27caa1f1E,@function
_ZN4core3str21_$LT$impl$u20$str$GT$8is_empty17h27e1949a27caa1f1E:
	testq	%rsi, %rsi
	sete	%al
	retq
.Lfunc_end6:
	.size	_ZN4core3str21_$LT$impl$u20$str$GT$8is_empty17h27e1949a27caa1f1E, .Lfunc_end6-_ZN4core3str21_$LT$impl$u20$str$GT$8is_empty17h27e1949a27caa1f1E

	.section	".text._ZN4core3str21_$LT$impl$u20$str$GT$3len17h27a55c4a13290f0dE","ax",@progbits
	.globl	_ZN4core3str21_$LT$impl$u20$str$GT$3len17h27a55c4a13290f0dE
	.p2align	4, 0x90
	.type	_ZN4core3str21_$LT$impl$u20$str$GT$3len17h27a55c4a13290f0dE,@function
_ZN4core3str21_$LT$impl$u20$str$GT$3len17h27a55c4a13290f0dE:
	movq	%rsi, %rax
	retq
.Lfunc_end7:
	.size	_ZN4core3str21_$LT$impl$u20$str$GT$3len17h27a55c4a13290f0dE, .Lfunc_end7-_ZN4core3str21_$LT$impl$u20$str$GT$3len17h27a55c4a13290f0dE

	.section	".text._ZN4core3str21_$LT$impl$u20$str$GT$14from_raw_parts17h75dafa2d0fd3fc07E","ax",@progbits
	.globl	_ZN4core3str21_$LT$impl$u20$str$GT$14from_raw_parts17h75dafa2d0fd3fc07E
	.p2align	4, 0x90
	.type	_ZN4core3str21_$LT$impl$u20$str$GT$14from_raw_parts17h75dafa2d0fd3fc07E,@function
_ZN4core3str21_$LT$impl$u20$str$GT$14from_raw_parts17h75dafa2d0fd3fc07E:
	movq	%rsi, %rdx
	movq	%rdi, %rax
	retq
.Lfunc_end8:
	.size	_ZN4core3str21_$LT$impl$u20$str$GT$14from_raw_parts17h75dafa2d0fd3fc07E, .Lfunc_end8-_ZN4core3str21_$LT$impl$u20$str$GT$14from_raw_parts17h75dafa2d0fd3fc07E

	.section	".text._ZN57_$LT$core..str..Chars$u20$as$u20$core..iter..Iterator$GT$4next17h7216e0d204cf2e16E","ax",@progbits
	.globl	_ZN57_$LT$core..str..Chars$u20$as$u20$core..iter..Iterator$GT$4next17h7216e0d204cf2e16E
	.p2align	4, 0x90
	.type	_ZN57_$LT$core..str..Chars$u20$as$u20$core..iter..Iterator$GT$4next17h7216e0d204cf2e16E,@function
_ZN57_$LT$core..str..Chars$u20$as$u20$core..iter..Iterator$GT$4next17h7216e0d204cf2e16E:
	movq	8(%rdi), %rdx
	testq	%rdx, %rdx
	je	.LBB9_1
	movq	(%rdi), %rsi
	movzbl	(%rsi), %eax
	testb	%al, %al
	js	.LBB9_4
	addq	$1, %rsi
	addq	$-1, %rdx
	movq	%rsi, (%rdi)
	movq	%rdx, 8(%rdi)
	retq
.LBB9_1:
	movl	$1114112, %eax
	retq
.LBB9_4:
	movl	%eax, %ecx
	andb	$-32, %cl
	cmpb	$-64, %cl
	jne	.LBB9_6
	leaq	2(%rsi), %rcx
	addq	$-2, %rdx
	movq	%rcx, (%rdi)
	movq	%rdx, 8(%rdi)
	andl	$31, %eax
	shll	$6, %eax
	movzbl	1(%rsi), %ecx
	andl	$63, %ecx
	orl	%ecx, %eax
	retq
.LBB9_6:
	movl	%eax, %ecx
	andb	$-16, %cl
	cmpb	$-32, %cl
	jne	.LBB9_8
	leaq	3(%rsi), %rcx
	addq	$-3, %rdx
	movq	%rcx, (%rdi)
	movq	%rdx, 8(%rdi)
	andl	$15, %eax
	shll	$12, %eax
	movzbl	1(%rsi), %ecx
	andl	$63, %ecx
	shll	$6, %ecx
	orl	%eax, %ecx
	movzbl	2(%rsi), %eax
	andl	$63, %eax
	orl	%ecx, %eax
	retq
.LBB9_8:
	andl	$7, %eax
	shll	$18, %eax
	leaq	4(%rsi), %rcx
	addq	$-4, %rdx
	movq	%rcx, (%rdi)
	movq	%rdx, 8(%rdi)
	movzbl	1(%rsi), %ecx
	andl	$63, %ecx
	shll	$12, %ecx
	orl	%eax, %ecx
	movzbl	2(%rsi), %edx
	andl	$63, %edx
	shll	$6, %edx
	orl	%ecx, %edx
	movzbl	3(%rsi), %eax
	andl	$63, %eax
	orl	%edx, %eax
	retq
.Lfunc_end9:
	.size	_ZN57_$LT$core..str..Chars$u20$as$u20$core..iter..Iterator$GT$4next17h7216e0d204cf2e16E, .Lfunc_end9-_ZN57_$LT$core..str..Chars$u20$as$u20$core..iter..Iterator$GT$4next17h7216e0d204cf2e16E

	.section	.text._ZN4core4sync6atomic10AtomicBool3new17he4368764b9237421E,"ax",@progbits
	.globl	_ZN4core4sync6atomic10AtomicBool3new17he4368764b9237421E
	.p2align	4, 0x90
	.type	_ZN4core4sync6atomic10AtomicBool3new17he4368764b9237421E,@function
_ZN4core4sync6atomic10AtomicBool3new17he4368764b9237421E:
	movl	%edi, %eax
	retq
.Lfunc_end10:
	.size	_ZN4core4sync6atomic10AtomicBool3new17he4368764b9237421E, .Lfunc_end10-_ZN4core4sync6atomic10AtomicBool3new17he4368764b9237421E

	.section	.text._ZN4core4sync6atomic10AtomicBool16compare_exchange17habd19e775045c3f4E,"ax",@progbits
	.globl	_ZN4core4sync6atomic10AtomicBool16compare_exchange17habd19e775045c3f4E
	.p2align	4, 0x90
	.type	_ZN4core4sync6atomic10AtomicBool16compare_exchange17habd19e775045c3f4E,@function
_ZN4core4sync6atomic10AtomicBool16compare_exchange17habd19e775045c3f4E:
	cmpb	$4, %cl
	ja	.LBB11_5
	movzbl	%cl, %eax
	leaq	.LJTI11_0(%rip), %rcx
	movslq	(%rcx,%rax,4), %rax
	addq	%rcx, %rax
	jmpq	*%rax
.LBB11_4:
	testb	%r8b, %r8b
	jne	.LBB11_5
	jmp	.LBB11_9
.LBB11_6:
	testb	%r8b, %r8b
	je	.LBB11_9
	cmpb	$1, %r8b
	je	.LBB11_9
.LBB11_5:
	xorl	%ecx, %ecx
	jmp	.LBB11_10
.LBB11_2:
	cmpb	$4, %r8b
	je	.LBB11_9
	cmpb	$1, %r8b
	jne	.LBB11_4
.LBB11_9:
	movl	%esi, %eax
	lock		cmpxchgb	%dl, (%rdi)
	sete	%cl
	movl	%eax, %esi
.LBB11_10:
	cmpb	$1, %sil
	sete	%dl
	xorb	$1, %cl
	movl	%ecx, %eax
	retq
.Lfunc_end11:
	.size	_ZN4core4sync6atomic10AtomicBool16compare_exchange17habd19e775045c3f4E, .Lfunc_end11-_ZN4core4sync6atomic10AtomicBool16compare_exchange17habd19e775045c3f4E
	.section	.rodata._ZN4core4sync6atomic10AtomicBool16compare_exchange17habd19e775045c3f4E,"a",@progbits
	.p2align	2
.LJTI11_0:
	.long	.LBB11_4-.LJTI11_0
	.long	.LBB11_6-.LJTI11_0
	.long	.LBB11_4-.LJTI11_0
	.long	.LBB11_6-.LJTI11_0
	.long	.LBB11_2-.LJTI11_0

	.section	.text._ZN4core4sync6atomic10AtomicBool5store17h5a3a0027fcd2b2e9E,"ax",@progbits
	.globl	_ZN4core4sync6atomic10AtomicBool5store17h5a3a0027fcd2b2e9E
	.p2align	4, 0x90
	.type	_ZN4core4sync6atomic10AtomicBool5store17h5a3a0027fcd2b2e9E,@function
_ZN4core4sync6atomic10AtomicBool5store17h5a3a0027fcd2b2e9E:
	pushq	%rax
	testb	%dl, %dl
	je	.LBB12_4
	cmpb	$2, %dl
	je	.LBB12_4
	cmpb	$4, %dl
	jne	.LBB12_3
	xchgb	%sil, (%rdi)
	popq	%rax
	retq
.LBB12_4:
	movb	%sil, (%rdi)
	popq	%rax
	retq
.LBB12_3:
	leaq	.L__unnamed_1(%rip), %rdi
	leaq	.L__unnamed_2(%rip), %rdx
	movl	$41, %esi
	callq	_ZN4core5panic5panic17h6dbea6e1214c1483E@PLT
	ud2
.Lfunc_end12:
	.size	_ZN4core4sync6atomic10AtomicBool5store17h5a3a0027fcd2b2e9E, .Lfunc_end12-_ZN4core4sync6atomic10AtomicBool5store17h5a3a0027fcd2b2e9E

	.section	.text._ZN4core4sync6atomic10AtomicBool4load17h84d71e346d4f15b0E,"ax",@progbits
	.globl	_ZN4core4sync6atomic10AtomicBool4load17h84d71e346d4f15b0E
	.p2align	4, 0x90
	.type	_ZN4core4sync6atomic10AtomicBool4load17h84d71e346d4f15b0E,@function
_ZN4core4sync6atomic10AtomicBool4load17h84d71e346d4f15b0E:
	pushq	%rax
	testb	%sil, %sil
	je	.LBB13_4
	cmpb	$1, %sil
	je	.LBB13_4
	cmpb	$4, %sil
	jne	.LBB13_3
.LBB13_4:
	movb	(%rdi), %al
	testb	%al, %al
	setne	%al
	popq	%rcx
	retq
.LBB13_3:
	leaq	.L__unnamed_3(%rip), %rdi
	leaq	.L__unnamed_4(%rip), %rdx
	movl	$40, %esi
	callq	_ZN4core5panic5panic17h6dbea6e1214c1483E@PLT
	ud2
.Lfunc_end13:
	.size	_ZN4core4sync6atomic10AtomicBool4load17h84d71e346d4f15b0E, .Lfunc_end13-_ZN4core4sync6atomic10AtomicBool4load17h84d71e346d4f15b0E

	.section	".text._ZN44_$LT$f32$u20$as$u20$core..cmp..PartialEq$GT$2eq17haac13d7ad810c6f1E","ax",@progbits
	.globl	_ZN44_$LT$f32$u20$as$u20$core..cmp..PartialEq$GT$2eq17haac13d7ad810c6f1E
	.p2align	4, 0x90
	.type	_ZN44_$LT$f32$u20$as$u20$core..cmp..PartialEq$GT$2eq17haac13d7ad810c6f1E,@function
_ZN44_$LT$f32$u20$as$u20$core..cmp..PartialEq$GT$2eq17haac13d7ad810c6f1E:
	pushq	%rax
	movl	(%rdi), %edi
	movl	(%rsi), %esi
	callq	__eqsf2@PLT
	testl	%eax, %eax
	sete	%al
	popq	%rcx
	retq
.Lfunc_end14:
	.size	_ZN44_$LT$f32$u20$as$u20$core..cmp..PartialEq$GT$2eq17haac13d7ad810c6f1E, .Lfunc_end14-_ZN44_$LT$f32$u20$as$u20$core..cmp..PartialEq$GT$2eq17haac13d7ad810c6f1E

	.section	".text._ZN45_$LT$f32$u20$as$u20$core..cmp..PartialOrd$GT$11partial_cmp17h7c0c134fa958cab5E","ax",@progbits
	.globl	_ZN45_$LT$f32$u20$as$u20$core..cmp..PartialOrd$GT$11partial_cmp17h7c0c134fa958cab5E
	.p2align	4, 0x90
	.type	_ZN45_$LT$f32$u20$as$u20$core..cmp..PartialOrd$GT$11partial_cmp17h7c0c134fa958cab5E,@function
_ZN45_$LT$f32$u20$as$u20$core..cmp..PartialOrd$GT$11partial_cmp17h7c0c134fa958cab5E:
	pushq	%rbp
	pushq	%r15
	pushq	%r14
	pushq	%rbx
	pushq	%rax
	movl	(%rdi), %r15d
	movl	(%rsi), %ebp
	movl	%r15d, %edi
	movl	%ebp, %esi
	callq	__lesf2@PLT
	movl	%eax, %r14d
	movl	%r15d, %edi
	movl	%ebp, %esi
	callq	__gesf2@PLT
	testl	%eax, %eax
	sets	%bl
	movl	%r15d, %edi
	movl	%ebp, %esi
	callq	__gesf2@PLT
	testl	%eax, %eax
	setns	%al
	movb	$2, %cl
	subb	%al, %cl
	negb	%bl
	testl	%r14d, %r14d
	movzbl	%cl, %ecx
	movzbl	%bl, %eax
	cmovgl	%ecx, %eax
	addq	$8, %rsp
	popq	%rbx
	popq	%r14
	popq	%r15
	popq	%rbp
	retq
.Lfunc_end15:
	.size	_ZN45_$LT$f32$u20$as$u20$core..cmp..PartialOrd$GT$11partial_cmp17h7c0c134fa958cab5E, .Lfunc_end15-_ZN45_$LT$f32$u20$as$u20$core..cmp..PartialOrd$GT$11partial_cmp17h7c0c134fa958cab5E

	.section	".text._ZN45_$LT$f32$u20$as$u20$core..cmp..PartialOrd$GT$2le17h5d24a66489b19fbeE","ax",@progbits
	.globl	_ZN45_$LT$f32$u20$as$u20$core..cmp..PartialOrd$GT$2le17h5d24a66489b19fbeE
	.p2align	4, 0x90
	.type	_ZN45_$LT$f32$u20$as$u20$core..cmp..PartialOrd$GT$2le17h5d24a66489b19fbeE,@function
_ZN45_$LT$f32$u20$as$u20$core..cmp..PartialOrd$GT$2le17h5d24a66489b19fbeE:
	pushq	%rax
	movl	(%rdi), %edi
	movl	(%rsi), %esi
	callq	__lesf2@PLT
	testl	%eax, %eax
	setle	%al
	popq	%rcx
	retq
.Lfunc_end16:
	.size	_ZN45_$LT$f32$u20$as$u20$core..cmp..PartialOrd$GT$2le17h5d24a66489b19fbeE, .Lfunc_end16-_ZN45_$LT$f32$u20$as$u20$core..cmp..PartialOrd$GT$2le17h5d24a66489b19fbeE

	.section	".text._ZN45_$LT$f32$u20$as$u20$core..cmp..PartialOrd$GT$2lt17hf18f6a1e55552813E","ax",@progbits
	.globl	_ZN45_$LT$f32$u20$as$u20$core..cmp..PartialOrd$GT$2lt17hf18f6a1e55552813E
	.p2align	4, 0x90
	.type	_ZN45_$LT$f32$u20$as$u20$core..cmp..PartialOrd$GT$2lt17hf18f6a1e55552813E,@function
_ZN45_$LT$f32$u20$as$u20$core..cmp..PartialOrd$GT$2lt17hf18f6a1e55552813E:
	pushq	%rax
	movl	(%rdi), %edi
	movl	(%rsi), %esi
	callq	__ltsf2@PLT
	testl	%eax, %eax
	sets	%al
	popq	%rcx
	retq
.Lfunc_end17:
	.size	_ZN45_$LT$f32$u20$as$u20$core..cmp..PartialOrd$GT$2lt17hf18f6a1e55552813E, .Lfunc_end17-_ZN45_$LT$f32$u20$as$u20$core..cmp..PartialOrd$GT$2lt17hf18f6a1e55552813E

	.section	".text._ZN45_$LT$f32$u20$as$u20$core..cmp..PartialOrd$GT$2ge17hdfef441a2d3c460aE","ax",@progbits
	.globl	_ZN45_$LT$f32$u20$as$u20$core..cmp..PartialOrd$GT$2ge17hdfef441a2d3c460aE
	.p2align	4, 0x90
	.type	_ZN45_$LT$f32$u20$as$u20$core..cmp..PartialOrd$GT$2ge17hdfef441a2d3c460aE,@function
_ZN45_$LT$f32$u20$as$u20$core..cmp..PartialOrd$GT$2ge17hdfef441a2d3c460aE:
	pushq	%rax
	movl	(%rdi), %edi
	movl	(%rsi), %esi
	callq	__gesf2@PLT
	testl	%eax, %eax
	setns	%al
	popq	%rcx
	retq
.Lfunc_end18:
	.size	_ZN45_$LT$f32$u20$as$u20$core..cmp..PartialOrd$GT$2ge17hdfef441a2d3c460aE, .Lfunc_end18-_ZN45_$LT$f32$u20$as$u20$core..cmp..PartialOrd$GT$2ge17hdfef441a2d3c460aE

	.section	".text._ZN45_$LT$f32$u20$as$u20$core..cmp..PartialOrd$GT$2gt17h9619d21c231a89ccE","ax",@progbits
	.globl	_ZN45_$LT$f32$u20$as$u20$core..cmp..PartialOrd$GT$2gt17h9619d21c231a89ccE
	.p2align	4, 0x90
	.type	_ZN45_$LT$f32$u20$as$u20$core..cmp..PartialOrd$GT$2gt17h9619d21c231a89ccE,@function
_ZN45_$LT$f32$u20$as$u20$core..cmp..PartialOrd$GT$2gt17h9619d21c231a89ccE:
	pushq	%rax
	movl	(%rdi), %edi
	movl	(%rsi), %esi
	callq	__gtsf2@PLT
	testl	%eax, %eax
	setg	%al
	popq	%rcx
	retq
.Lfunc_end19:
	.size	_ZN45_$LT$f32$u20$as$u20$core..cmp..PartialOrd$GT$2gt17h9619d21c231a89ccE, .Lfunc_end19-_ZN45_$LT$f32$u20$as$u20$core..cmp..PartialOrd$GT$2gt17h9619d21c231a89ccE

	.section	".text._ZN44_$LT$f64$u20$as$u20$core..cmp..PartialEq$GT$2eq17he50ee1b40d5e2fccE","ax",@progbits
	.globl	_ZN44_$LT$f64$u20$as$u20$core..cmp..PartialEq$GT$2eq17he50ee1b40d5e2fccE
	.p2align	4, 0x90
	.type	_ZN44_$LT$f64$u20$as$u20$core..cmp..PartialEq$GT$2eq17he50ee1b40d5e2fccE,@function
_ZN44_$LT$f64$u20$as$u20$core..cmp..PartialEq$GT$2eq17he50ee1b40d5e2fccE:
	pushq	%rax
	movq	(%rdi), %rdi
	movq	(%rsi), %rsi
	callq	__eqdf2@PLT
	testl	%eax, %eax
	sete	%al
	popq	%rcx
	retq
.Lfunc_end20:
	.size	_ZN44_$LT$f64$u20$as$u20$core..cmp..PartialEq$GT$2eq17he50ee1b40d5e2fccE, .Lfunc_end20-_ZN44_$LT$f64$u20$as$u20$core..cmp..PartialEq$GT$2eq17he50ee1b40d5e2fccE

	.section	".text._ZN45_$LT$f64$u20$as$u20$core..cmp..PartialOrd$GT$11partial_cmp17h42f24d3c25ff4124E","ax",@progbits
	.globl	_ZN45_$LT$f64$u20$as$u20$core..cmp..PartialOrd$GT$11partial_cmp17h42f24d3c25ff4124E
	.p2align	4, 0x90
	.type	_ZN45_$LT$f64$u20$as$u20$core..cmp..PartialOrd$GT$11partial_cmp17h42f24d3c25ff4124E,@function
_ZN45_$LT$f64$u20$as$u20$core..cmp..PartialOrd$GT$11partial_cmp17h42f24d3c25ff4124E:
	pushq	%rbp
	pushq	%r15
	pushq	%r14
	pushq	%rbx
	pushq	%rax
	movq	(%rdi), %rbp
	movq	(%rsi), %r14
	movq	%rbp, %rdi
	movq	%r14, %rsi
	callq	__ledf2@PLT
	movl	%eax, %r15d
	movq	%rbp, %rdi
	movq	%r14, %rsi
	callq	__gedf2@PLT
	testl	%eax, %eax
	sets	%bl
	movq	%rbp, %rdi
	movq	%r14, %rsi
	callq	__gedf2@PLT
	testl	%eax, %eax
	setns	%al
	movb	$2, %cl
	subb	%al, %cl
	negb	%bl
	testl	%r15d, %r15d
	movzbl	%cl, %ecx
	movzbl	%bl, %eax
	cmovgl	%ecx, %eax
	addq	$8, %rsp
	popq	%rbx
	popq	%r14
	popq	%r15
	popq	%rbp
	retq
.Lfunc_end21:
	.size	_ZN45_$LT$f64$u20$as$u20$core..cmp..PartialOrd$GT$11partial_cmp17h42f24d3c25ff4124E, .Lfunc_end21-_ZN45_$LT$f64$u20$as$u20$core..cmp..PartialOrd$GT$11partial_cmp17h42f24d3c25ff4124E

	.section	".text._ZN45_$LT$f64$u20$as$u20$core..cmp..PartialOrd$GT$2le17hc4333d5571337901E","ax",@progbits
	.globl	_ZN45_$LT$f64$u20$as$u20$core..cmp..PartialOrd$GT$2le17hc4333d5571337901E
	.p2align	4, 0x90
	.type	_ZN45_$LT$f64$u20$as$u20$core..cmp..PartialOrd$GT$2le17hc4333d5571337901E,@function
_ZN45_$LT$f64$u20$as$u20$core..cmp..PartialOrd$GT$2le17hc4333d5571337901E:
	pushq	%rax
	movq	(%rdi), %rdi
	movq	(%rsi), %rsi
	callq	__ledf2@PLT
	testl	%eax, %eax
	setle	%al
	popq	%rcx
	retq
.Lfunc_end22:
	.size	_ZN45_$LT$f64$u20$as$u20$core..cmp..PartialOrd$GT$2le17hc4333d5571337901E, .Lfunc_end22-_ZN45_$LT$f64$u20$as$u20$core..cmp..PartialOrd$GT$2le17hc4333d5571337901E

	.section	".text._ZN45_$LT$f64$u20$as$u20$core..cmp..PartialOrd$GT$2lt17h4ff956d3a04f87aaE","ax",@progbits
	.globl	_ZN45_$LT$f64$u20$as$u20$core..cmp..PartialOrd$GT$2lt17h4ff956d3a04f87aaE
	.p2align	4, 0x90
	.type	_ZN45_$LT$f64$u20$as$u20$core..cmp..PartialOrd$GT$2lt17h4ff956d3a04f87aaE,@function
_ZN45_$LT$f64$u20$as$u20$core..cmp..PartialOrd$GT$2lt17h4ff956d3a04f87aaE:
	pushq	%rax
	movq	(%rdi), %rdi
	movq	(%rsi), %rsi
	callq	__ltdf2@PLT
	testl	%eax, %eax
	sets	%al
	popq	%rcx
	retq
.Lfunc_end23:
	.size	_ZN45_$LT$f64$u20$as$u20$core..cmp..PartialOrd$GT$2lt17h4ff956d3a04f87aaE, .Lfunc_end23-_ZN45_$LT$f64$u20$as$u20$core..cmp..PartialOrd$GT$2lt17h4ff956d3a04f87aaE

	.section	".text._ZN45_$LT$f64$u20$as$u20$core..cmp..PartialOrd$GT$2ge17hc08e09b18874f476E","ax",@progbits
	.globl	_ZN45_$LT$f64$u20$as$u20$core..cmp..PartialOrd$GT$2ge17hc08e09b18874f476E
	.p2align	4, 0x90
	.type	_ZN45_$LT$f64$u20$as$u20$core..cmp..PartialOrd$GT$2ge17hc08e09b18874f476E,@function
_ZN45_$LT$f64$u20$as$u20$core..cmp..PartialOrd$GT$2ge17hc08e09b18874f476E:
	pushq	%rax
	movq	(%rdi), %rdi
	movq	(%rsi), %rsi
	callq	__gedf2@PLT
	testl	%eax, %eax
	setns	%al
	popq	%rcx
	retq
.Lfunc_end24:
	.size	_ZN45_$LT$f64$u20$as$u20$core..cmp..PartialOrd$GT$2ge17hc08e09b18874f476E, .Lfunc_end24-_ZN45_$LT$f64$u20$as$u20$core..cmp..PartialOrd$GT$2ge17hc08e09b18874f476E

	.section	".text._ZN45_$LT$f64$u20$as$u20$core..cmp..PartialOrd$GT$2gt17hac433b5dd46257ddE","ax",@progbits
	.globl	_ZN45_$LT$f64$u20$as$u20$core..cmp..PartialOrd$GT$2gt17hac433b5dd46257ddE
	.p2align	4, 0x90
	.type	_ZN45_$LT$f64$u20$as$u20$core..cmp..PartialOrd$GT$2gt17hac433b5dd46257ddE,@function
_ZN45_$LT$f64$u20$as$u20$core..cmp..PartialOrd$GT$2gt17hac433b5dd46257ddE:
	pushq	%rax
	movq	(%rdi), %rdi
	movq	(%rsi), %rsi
	callq	__gtdf2@PLT
	testl	%eax, %eax
	setg	%al
	popq	%rcx
	retq
.Lfunc_end25:
	.size	_ZN45_$LT$f64$u20$as$u20$core..cmp..PartialOrd$GT$2gt17hac433b5dd46257ddE, .Lfunc_end25-_ZN45_$LT$f64$u20$as$u20$core..cmp..PartialOrd$GT$2gt17hac433b5dd46257ddE

	.section	".text._ZN44_$LT$u8$u20$as$u20$core..cmp..PartialOrd$GT$11partial_cmp17hba91c05f5e8a7cb2E","ax",@progbits
	.globl	_ZN44_$LT$u8$u20$as$u20$core..cmp..PartialOrd$GT$11partial_cmp17hba91c05f5e8a7cb2E
	.p2align	4, 0x90
	.type	_ZN44_$LT$u8$u20$as$u20$core..cmp..PartialOrd$GT$11partial_cmp17hba91c05f5e8a7cb2E,@function
_ZN44_$LT$u8$u20$as$u20$core..cmp..PartialOrd$GT$11partial_cmp17hba91c05f5e8a7cb2E:
	movb	(%rdi), %al
	xorl	%ecx, %ecx
	cmpb	(%rsi), %al
	setne	%cl
	movl	$255, %eax
	cmovael	%ecx, %eax
	retq
.Lfunc_end26:
	.size	_ZN44_$LT$u8$u20$as$u20$core..cmp..PartialOrd$GT$11partial_cmp17hba91c05f5e8a7cb2E, .Lfunc_end26-_ZN44_$LT$u8$u20$as$u20$core..cmp..PartialOrd$GT$11partial_cmp17hba91c05f5e8a7cb2E

	.section	".text._ZN44_$LT$u8$u20$as$u20$core..cmp..PartialOrd$GT$2le17had02b9dbaff9aa51E","ax",@progbits
	.globl	_ZN44_$LT$u8$u20$as$u20$core..cmp..PartialOrd$GT$2le17had02b9dbaff9aa51E
	.p2align	4, 0x90
	.type	_ZN44_$LT$u8$u20$as$u20$core..cmp..PartialOrd$GT$2le17had02b9dbaff9aa51E,@function
_ZN44_$LT$u8$u20$as$u20$core..cmp..PartialOrd$GT$2le17had02b9dbaff9aa51E:
	movb	(%rdi), %al
	cmpb	(%rsi), %al
	setbe	%al
	retq
.Lfunc_end27:
	.size	_ZN44_$LT$u8$u20$as$u20$core..cmp..PartialOrd$GT$2le17had02b9dbaff9aa51E, .Lfunc_end27-_ZN44_$LT$u8$u20$as$u20$core..cmp..PartialOrd$GT$2le17had02b9dbaff9aa51E

	.section	".text._ZN44_$LT$u8$u20$as$u20$core..cmp..PartialOrd$GT$2lt17h6e4680565f3faacaE","ax",@progbits
	.globl	_ZN44_$LT$u8$u20$as$u20$core..cmp..PartialOrd$GT$2lt17h6e4680565f3faacaE
	.p2align	4, 0x90
	.type	_ZN44_$LT$u8$u20$as$u20$core..cmp..PartialOrd$GT$2lt17h6e4680565f3faacaE,@function
_ZN44_$LT$u8$u20$as$u20$core..cmp..PartialOrd$GT$2lt17h6e4680565f3faacaE:
	movb	(%rdi), %al
	cmpb	(%rsi), %al
	setb	%al
	retq
.Lfunc_end28:
	.size	_ZN44_$LT$u8$u20$as$u20$core..cmp..PartialOrd$GT$2lt17h6e4680565f3faacaE, .Lfunc_end28-_ZN44_$LT$u8$u20$as$u20$core..cmp..PartialOrd$GT$2lt17h6e4680565f3faacaE

	.section	".text._ZN44_$LT$u8$u20$as$u20$core..cmp..PartialOrd$GT$2ge17hd51f89daebfead1cE","ax",@progbits
	.globl	_ZN44_$LT$u8$u20$as$u20$core..cmp..PartialOrd$GT$2ge17hd51f89daebfead1cE
	.p2align	4, 0x90
	.type	_ZN44_$LT$u8$u20$as$u20$core..cmp..PartialOrd$GT$2ge17hd51f89daebfead1cE,@function
_ZN44_$LT$u8$u20$as$u20$core..cmp..PartialOrd$GT$2ge17hd51f89daebfead1cE:
	movb	(%rdi), %al
	cmpb	(%rsi), %al
	setae	%al
	retq
.Lfunc_end29:
	.size	_ZN44_$LT$u8$u20$as$u20$core..cmp..PartialOrd$GT$2ge17hd51f89daebfead1cE, .Lfunc_end29-_ZN44_$LT$u8$u20$as$u20$core..cmp..PartialOrd$GT$2ge17hd51f89daebfead1cE

	.section	".text._ZN44_$LT$u8$u20$as$u20$core..cmp..PartialOrd$GT$2gt17h67238727fd593144E","ax",@progbits
	.globl	_ZN44_$LT$u8$u20$as$u20$core..cmp..PartialOrd$GT$2gt17h67238727fd593144E
	.p2align	4, 0x90
	.type	_ZN44_$LT$u8$u20$as$u20$core..cmp..PartialOrd$GT$2gt17h67238727fd593144E,@function
_ZN44_$LT$u8$u20$as$u20$core..cmp..PartialOrd$GT$2gt17h67238727fd593144E:
	movb	(%rdi), %al
	cmpb	(%rsi), %al
	seta	%al
	retq
.Lfunc_end30:
	.size	_ZN44_$LT$u8$u20$as$u20$core..cmp..PartialOrd$GT$2gt17h67238727fd593144E, .Lfunc_end30-_ZN44_$LT$u8$u20$as$u20$core..cmp..PartialOrd$GT$2gt17h67238727fd593144E

	.section	".text._ZN37_$LT$u8$u20$as$u20$core..cmp..Ord$GT$3cmp17hc9721b8ea6492af5E","ax",@progbits
	.globl	_ZN37_$LT$u8$u20$as$u20$core..cmp..Ord$GT$3cmp17hc9721b8ea6492af5E
	.p2align	4, 0x90
	.type	_ZN37_$LT$u8$u20$as$u20$core..cmp..Ord$GT$3cmp17hc9721b8ea6492af5E,@function
_ZN37_$LT$u8$u20$as$u20$core..cmp..Ord$GT$3cmp17hc9721b8ea6492af5E:
	movb	(%rdi), %al
	xorl	%ecx, %ecx
	cmpb	(%rsi), %al
	setne	%cl
	movl	$255, %eax
	cmovael	%ecx, %eax
	retq
.Lfunc_end31:
	.size	_ZN37_$LT$u8$u20$as$u20$core..cmp..Ord$GT$3cmp17hc9721b8ea6492af5E, .Lfunc_end31-_ZN37_$LT$u8$u20$as$u20$core..cmp..Ord$GT$3cmp17hc9721b8ea6492af5E

	.section	".text._ZN45_$LT$u16$u20$as$u20$core..cmp..PartialOrd$GT$11partial_cmp17h391ac59b1f29ab7dE","ax",@progbits
	.globl	_ZN45_$LT$u16$u20$as$u20$core..cmp..PartialOrd$GT$11partial_cmp17h391ac59b1f29ab7dE
	.p2align	4, 0x90
	.type	_ZN45_$LT$u16$u20$as$u20$core..cmp..PartialOrd$GT$11partial_cmp17h391ac59b1f29ab7dE,@function
_ZN45_$LT$u16$u20$as$u20$core..cmp..PartialOrd$GT$11partial_cmp17h391ac59b1f29ab7dE:
	movzwl	(%rdi), %eax
	xorl	%ecx, %ecx
	cmpw	(%rsi), %ax
	setne	%cl
	movl	$255, %eax
	cmovael	%ecx, %eax
	retq
.Lfunc_end32:
	.size	_ZN45_$LT$u16$u20$as$u20$core..cmp..PartialOrd$GT$11partial_cmp17h391ac59b1f29ab7dE, .Lfunc_end32-_ZN45_$LT$u16$u20$as$u20$core..cmp..PartialOrd$GT$11partial_cmp17h391ac59b1f29ab7dE

	.section	".text._ZN45_$LT$u16$u20$as$u20$core..cmp..PartialOrd$GT$2le17hcd66150785a29e8dE","ax",@progbits
	.globl	_ZN45_$LT$u16$u20$as$u20$core..cmp..PartialOrd$GT$2le17hcd66150785a29e8dE
	.p2align	4, 0x90
	.type	_ZN45_$LT$u16$u20$as$u20$core..cmp..PartialOrd$GT$2le17hcd66150785a29e8dE,@function
_ZN45_$LT$u16$u20$as$u20$core..cmp..PartialOrd$GT$2le17hcd66150785a29e8dE:
	movzwl	(%rdi), %eax
	cmpw	(%rsi), %ax
	setbe	%al
	retq
.Lfunc_end33:
	.size	_ZN45_$LT$u16$u20$as$u20$core..cmp..PartialOrd$GT$2le17hcd66150785a29e8dE, .Lfunc_end33-_ZN45_$LT$u16$u20$as$u20$core..cmp..PartialOrd$GT$2le17hcd66150785a29e8dE

	.section	".text._ZN45_$LT$u16$u20$as$u20$core..cmp..PartialOrd$GT$2lt17h369accd8ea804469E","ax",@progbits
	.globl	_ZN45_$LT$u16$u20$as$u20$core..cmp..PartialOrd$GT$2lt17h369accd8ea804469E
	.p2align	4, 0x90
	.type	_ZN45_$LT$u16$u20$as$u20$core..cmp..PartialOrd$GT$2lt17h369accd8ea804469E,@function
_ZN45_$LT$u16$u20$as$u20$core..cmp..PartialOrd$GT$2lt17h369accd8ea804469E:
	movzwl	(%rdi), %eax
	cmpw	(%rsi), %ax
	setb	%al
	retq
.Lfunc_end34:
	.size	_ZN45_$LT$u16$u20$as$u20$core..cmp..PartialOrd$GT$2lt17h369accd8ea804469E, .Lfunc_end34-_ZN45_$LT$u16$u20$as$u20$core..cmp..PartialOrd$GT$2lt17h369accd8ea804469E

	.section	".text._ZN45_$LT$u16$u20$as$u20$core..cmp..PartialOrd$GT$2ge17hf5027ca2e27308e4E","ax",@progbits
	.globl	_ZN45_$LT$u16$u20$as$u20$core..cmp..PartialOrd$GT$2ge17hf5027ca2e27308e4E
	.p2align	4, 0x90
	.type	_ZN45_$LT$u16$u20$as$u20$core..cmp..PartialOrd$GT$2ge17hf5027ca2e27308e4E,@function
_ZN45_$LT$u16$u20$as$u20$core..cmp..PartialOrd$GT$2ge17hf5027ca2e27308e4E:
	movzwl	(%rdi), %eax
	cmpw	(%rsi), %ax
	setae	%al
	retq
.Lfunc_end35:
	.size	_ZN45_$LT$u16$u20$as$u20$core..cmp..PartialOrd$GT$2ge17hf5027ca2e27308e4E, .Lfunc_end35-_ZN45_$LT$u16$u20$as$u20$core..cmp..PartialOrd$GT$2ge17hf5027ca2e27308e4E

	.section	".text._ZN45_$LT$u16$u20$as$u20$core..cmp..PartialOrd$GT$2gt17h5018a1e1790ef6beE","ax",@progbits
	.globl	_ZN45_$LT$u16$u20$as$u20$core..cmp..PartialOrd$GT$2gt17h5018a1e1790ef6beE
	.p2align	4, 0x90
	.type	_ZN45_$LT$u16$u20$as$u20$core..cmp..PartialOrd$GT$2gt17h5018a1e1790ef6beE,@function
_ZN45_$LT$u16$u20$as$u20$core..cmp..PartialOrd$GT$2gt17h5018a1e1790ef6beE:
	movzwl	(%rdi), %eax
	cmpw	(%rsi), %ax
	seta	%al
	retq
.Lfunc_end36:
	.size	_ZN45_$LT$u16$u20$as$u20$core..cmp..PartialOrd$GT$2gt17h5018a1e1790ef6beE, .Lfunc_end36-_ZN45_$LT$u16$u20$as$u20$core..cmp..PartialOrd$GT$2gt17h5018a1e1790ef6beE

	.section	".text._ZN38_$LT$u16$u20$as$u20$core..cmp..Ord$GT$3cmp17h3a47d510019e177bE","ax",@progbits
	.globl	_ZN38_$LT$u16$u20$as$u20$core..cmp..Ord$GT$3cmp17h3a47d510019e177bE
	.p2align	4, 0x90
	.type	_ZN38_$LT$u16$u20$as$u20$core..cmp..Ord$GT$3cmp17h3a47d510019e177bE,@function
_ZN38_$LT$u16$u20$as$u20$core..cmp..Ord$GT$3cmp17h3a47d510019e177bE:
	movzwl	(%rdi), %eax
	xorl	%ecx, %ecx
	cmpw	(%rsi), %ax
	setne	%cl
	movl	$255, %eax
	cmovael	%ecx, %eax
	retq
.Lfunc_end37:
	.size	_ZN38_$LT$u16$u20$as$u20$core..cmp..Ord$GT$3cmp17h3a47d510019e177bE, .Lfunc_end37-_ZN38_$LT$u16$u20$as$u20$core..cmp..Ord$GT$3cmp17h3a47d510019e177bE

	.section	".text._ZN45_$LT$u32$u20$as$u20$core..cmp..PartialOrd$GT$11partial_cmp17hf493920ffd0b470eE","ax",@progbits
	.globl	_ZN45_$LT$u32$u20$as$u20$core..cmp..PartialOrd$GT$11partial_cmp17hf493920ffd0b470eE
	.p2align	4, 0x90
	.type	_ZN45_$LT$u32$u20$as$u20$core..cmp..PartialOrd$GT$11partial_cmp17hf493920ffd0b470eE,@function
_ZN45_$LT$u32$u20$as$u20$core..cmp..PartialOrd$GT$11partial_cmp17hf493920ffd0b470eE:
	movl	(%rdi), %eax
	xorl	%ecx, %ecx
	cmpl	(%rsi), %eax
	setne	%cl
	movl	$255, %eax
	cmovael	%ecx, %eax
	retq
.Lfunc_end38:
	.size	_ZN45_$LT$u32$u20$as$u20$core..cmp..PartialOrd$GT$11partial_cmp17hf493920ffd0b470eE, .Lfunc_end38-_ZN45_$LT$u32$u20$as$u20$core..cmp..PartialOrd$GT$11partial_cmp17hf493920ffd0b470eE

	.section	".text._ZN45_$LT$u32$u20$as$u20$core..cmp..PartialOrd$GT$2le17hd8304b14afa14745E","ax",@progbits
	.globl	_ZN45_$LT$u32$u20$as$u20$core..cmp..PartialOrd$GT$2le17hd8304b14afa14745E
	.p2align	4, 0x90
	.type	_ZN45_$LT$u32$u20$as$u20$core..cmp..PartialOrd$GT$2le17hd8304b14afa14745E,@function
_ZN45_$LT$u32$u20$as$u20$core..cmp..PartialOrd$GT$2le17hd8304b14afa14745E:
	movl	(%rdi), %eax
	cmpl	(%rsi), %eax
	setbe	%al
	retq
.Lfunc_end39:
	.size	_ZN45_$LT$u32$u20$as$u20$core..cmp..PartialOrd$GT$2le17hd8304b14afa14745E, .Lfunc_end39-_ZN45_$LT$u32$u20$as$u20$core..cmp..PartialOrd$GT$2le17hd8304b14afa14745E

	.section	".text._ZN45_$LT$u32$u20$as$u20$core..cmp..PartialOrd$GT$2lt17h29deaa1779c41aecE","ax",@progbits
	.globl	_ZN45_$LT$u32$u20$as$u20$core..cmp..PartialOrd$GT$2lt17h29deaa1779c41aecE
	.p2align	4, 0x90
	.type	_ZN45_$LT$u32$u20$as$u20$core..cmp..PartialOrd$GT$2lt17h29deaa1779c41aecE,@function
_ZN45_$LT$u32$u20$as$u20$core..cmp..PartialOrd$GT$2lt17h29deaa1779c41aecE:
	movl	(%rdi), %eax
	cmpl	(%rsi), %eax
	setb	%al
	retq
.Lfunc_end40:
	.size	_ZN45_$LT$u32$u20$as$u20$core..cmp..PartialOrd$GT$2lt17h29deaa1779c41aecE, .Lfunc_end40-_ZN45_$LT$u32$u20$as$u20$core..cmp..PartialOrd$GT$2lt17h29deaa1779c41aecE

	.section	".text._ZN45_$LT$u32$u20$as$u20$core..cmp..PartialOrd$GT$2ge17h51272fb74c5440d4E","ax",@progbits
	.globl	_ZN45_$LT$u32$u20$as$u20$core..cmp..PartialOrd$GT$2ge17h51272fb74c5440d4E
	.p2align	4, 0x90
	.type	_ZN45_$LT$u32$u20$as$u20$core..cmp..PartialOrd$GT$2ge17h51272fb74c5440d4E,@function
_ZN45_$LT$u32$u20$as$u20$core..cmp..PartialOrd$GT$2ge17h51272fb74c5440d4E:
	movl	(%rdi), %eax
	cmpl	(%rsi), %eax
	setae	%al
	retq
.Lfunc_end41:
	.size	_ZN45_$LT$u32$u20$as$u20$core..cmp..PartialOrd$GT$2ge17h51272fb74c5440d4E, .Lfunc_end41-_ZN45_$LT$u32$u20$as$u20$core..cmp..PartialOrd$GT$2ge17h51272fb74c5440d4E

	.section	".text._ZN45_$LT$u32$u20$as$u20$core..cmp..PartialOrd$GT$2gt17hd68ee29b5c910a04E","ax",@progbits
	.globl	_ZN45_$LT$u32$u20$as$u20$core..cmp..PartialOrd$GT$2gt17hd68ee29b5c910a04E
	.p2align	4, 0x90
	.type	_ZN45_$LT$u32$u20$as$u20$core..cmp..PartialOrd$GT$2gt17hd68ee29b5c910a04E,@function
_ZN45_$LT$u32$u20$as$u20$core..cmp..PartialOrd$GT$2gt17hd68ee29b5c910a04E:
	movl	(%rdi), %eax
	cmpl	(%rsi), %eax
	seta	%al
	retq
.Lfunc_end42:
	.size	_ZN45_$LT$u32$u20$as$u20$core..cmp..PartialOrd$GT$2gt17hd68ee29b5c910a04E, .Lfunc_end42-_ZN45_$LT$u32$u20$as$u20$core..cmp..PartialOrd$GT$2gt17hd68ee29b5c910a04E

	.section	".text._ZN38_$LT$u32$u20$as$u20$core..cmp..Ord$GT$3cmp17h4dfa2ef27c34b9b8E","ax",@progbits
	.globl	_ZN38_$LT$u32$u20$as$u20$core..cmp..Ord$GT$3cmp17h4dfa2ef27c34b9b8E
	.p2align	4, 0x90
	.type	_ZN38_$LT$u32$u20$as$u20$core..cmp..Ord$GT$3cmp17h4dfa2ef27c34b9b8E,@function
_ZN38_$LT$u32$u20$as$u20$core..cmp..Ord$GT$3cmp17h4dfa2ef27c34b9b8E:
	movl	(%rdi), %eax
	xorl	%ecx, %ecx
	cmpl	(%rsi), %eax
	setne	%cl
	movl	$255, %eax
	cmovael	%ecx, %eax
	retq
.Lfunc_end43:
	.size	_ZN38_$LT$u32$u20$as$u20$core..cmp..Ord$GT$3cmp17h4dfa2ef27c34b9b8E, .Lfunc_end43-_ZN38_$LT$u32$u20$as$u20$core..cmp..Ord$GT$3cmp17h4dfa2ef27c34b9b8E

	.section	".text._ZN45_$LT$u64$u20$as$u20$core..cmp..PartialOrd$GT$11partial_cmp17h8055be124af8b11bE","ax",@progbits
	.globl	_ZN45_$LT$u64$u20$as$u20$core..cmp..PartialOrd$GT$11partial_cmp17h8055be124af8b11bE
	.p2align	4, 0x90
	.type	_ZN45_$LT$u64$u20$as$u20$core..cmp..PartialOrd$GT$11partial_cmp17h8055be124af8b11bE,@function
_ZN45_$LT$u64$u20$as$u20$core..cmp..PartialOrd$GT$11partial_cmp17h8055be124af8b11bE:
	movq	(%rdi), %rax
	xorl	%ecx, %ecx
	cmpq	(%rsi), %rax
	setne	%cl
	movl	$255, %eax
	cmovael	%ecx, %eax
	retq
.Lfunc_end44:
	.size	_ZN45_$LT$u64$u20$as$u20$core..cmp..PartialOrd$GT$11partial_cmp17h8055be124af8b11bE, .Lfunc_end44-_ZN45_$LT$u64$u20$as$u20$core..cmp..PartialOrd$GT$11partial_cmp17h8055be124af8b11bE

	.section	".text._ZN45_$LT$u64$u20$as$u20$core..cmp..PartialOrd$GT$2le17h8b3a48f2a3dd1afdE","ax",@progbits
	.globl	_ZN45_$LT$u64$u20$as$u20$core..cmp..PartialOrd$GT$2le17h8b3a48f2a3dd1afdE
	.p2align	4, 0x90
	.type	_ZN45_$LT$u64$u20$as$u20$core..cmp..PartialOrd$GT$2le17h8b3a48f2a3dd1afdE,@function
_ZN45_$LT$u64$u20$as$u20$core..cmp..PartialOrd$GT$2le17h8b3a48f2a3dd1afdE:
	movq	(%rdi), %rax
	cmpq	(%rsi), %rax
	setbe	%al
	retq
.Lfunc_end45:
	.size	_ZN45_$LT$u64$u20$as$u20$core..cmp..PartialOrd$GT$2le17h8b3a48f2a3dd1afdE, .Lfunc_end45-_ZN45_$LT$u64$u20$as$u20$core..cmp..PartialOrd$GT$2le17h8b3a48f2a3dd1afdE

	.section	".text._ZN45_$LT$u64$u20$as$u20$core..cmp..PartialOrd$GT$2lt17heba21fc55a3241d6E","ax",@progbits
	.globl	_ZN45_$LT$u64$u20$as$u20$core..cmp..PartialOrd$GT$2lt17heba21fc55a3241d6E
	.p2align	4, 0x90
	.type	_ZN45_$LT$u64$u20$as$u20$core..cmp..PartialOrd$GT$2lt17heba21fc55a3241d6E,@function
_ZN45_$LT$u64$u20$as$u20$core..cmp..PartialOrd$GT$2lt17heba21fc55a3241d6E:
	movq	(%rdi), %rax
	cmpq	(%rsi), %rax
	setb	%al
	retq
.Lfunc_end46:
	.size	_ZN45_$LT$u64$u20$as$u20$core..cmp..PartialOrd$GT$2lt17heba21fc55a3241d6E, .Lfunc_end46-_ZN45_$LT$u64$u20$as$u20$core..cmp..PartialOrd$GT$2lt17heba21fc55a3241d6E

	.section	".text._ZN45_$LT$u64$u20$as$u20$core..cmp..PartialOrd$GT$2ge17h2816fe24e9b82872E","ax",@progbits
	.globl	_ZN45_$LT$u64$u20$as$u20$core..cmp..PartialOrd$GT$2ge17h2816fe24e9b82872E
	.p2align	4, 0x90
	.type	_ZN45_$LT$u64$u20$as$u20$core..cmp..PartialOrd$GT$2ge17h2816fe24e9b82872E,@function
_ZN45_$LT$u64$u20$as$u20$core..cmp..PartialOrd$GT$2ge17h2816fe24e9b82872E:
	movq	(%rdi), %rax
	cmpq	(%rsi), %rax
	setae	%al
	retq
.Lfunc_end47:
	.size	_ZN45_$LT$u64$u20$as$u20$core..cmp..PartialOrd$GT$2ge17h2816fe24e9b82872E, .Lfunc_end47-_ZN45_$LT$u64$u20$as$u20$core..cmp..PartialOrd$GT$2ge17h2816fe24e9b82872E

	.section	".text._ZN45_$LT$u64$u20$as$u20$core..cmp..PartialOrd$GT$2gt17hf2a243b1eb837a41E","ax",@progbits
	.globl	_ZN45_$LT$u64$u20$as$u20$core..cmp..PartialOrd$GT$2gt17hf2a243b1eb837a41E
	.p2align	4, 0x90
	.type	_ZN45_$LT$u64$u20$as$u20$core..cmp..PartialOrd$GT$2gt17hf2a243b1eb837a41E,@function
_ZN45_$LT$u64$u20$as$u20$core..cmp..PartialOrd$GT$2gt17hf2a243b1eb837a41E:
	movq	(%rdi), %rax
	cmpq	(%rsi), %rax
	seta	%al
	retq
.Lfunc_end48:
	.size	_ZN45_$LT$u64$u20$as$u20$core..cmp..PartialOrd$GT$2gt17hf2a243b1eb837a41E, .Lfunc_end48-_ZN45_$LT$u64$u20$as$u20$core..cmp..PartialOrd$GT$2gt17hf2a243b1eb837a41E

	.section	".text._ZN38_$LT$u64$u20$as$u20$core..cmp..Ord$GT$3cmp17h4b482d74172f8e53E","ax",@progbits
	.globl	_ZN38_$LT$u64$u20$as$u20$core..cmp..Ord$GT$3cmp17h4b482d74172f8e53E
	.p2align	4, 0x90
	.type	_ZN38_$LT$u64$u20$as$u20$core..cmp..Ord$GT$3cmp17h4b482d74172f8e53E,@function
_ZN38_$LT$u64$u20$as$u20$core..cmp..Ord$GT$3cmp17h4b482d74172f8e53E:
	movq	(%rdi), %rax
	xorl	%ecx, %ecx
	cmpq	(%rsi), %rax
	setne	%cl
	movl	$255, %eax
	cmovael	%ecx, %eax
	retq
.Lfunc_end49:
	.size	_ZN38_$LT$u64$u20$as$u20$core..cmp..Ord$GT$3cmp17h4b482d74172f8e53E, .Lfunc_end49-_ZN38_$LT$u64$u20$as$u20$core..cmp..Ord$GT$3cmp17h4b482d74172f8e53E

	.section	".text._ZN46_$LT$u128$u20$as$u20$core..cmp..PartialOrd$GT$11partial_cmp17he55917ab99aa7356E","ax",@progbits
	.globl	_ZN46_$LT$u128$u20$as$u20$core..cmp..PartialOrd$GT$11partial_cmp17he55917ab99aa7356E
	.p2align	4, 0x90
	.type	_ZN46_$LT$u128$u20$as$u20$core..cmp..PartialOrd$GT$11partial_cmp17he55917ab99aa7356E,@function
_ZN46_$LT$u128$u20$as$u20$core..cmp..PartialOrd$GT$11partial_cmp17he55917ab99aa7356E:
	movq	(%rdi), %r8
	movq	8(%rdi), %rcx
	movq	(%rsi), %rdx
	movq	8(%rsi), %r9
	movq	%rcx, %rdi
	xorq	%r9, %rdi
	movq	%r8, %rax
	xorq	%rdx, %rax
	xorl	%esi, %esi
	orq	%rdi, %rax
	setne	%sil
	cmpq	%rdx, %r8
	sbbq	%r9, %rcx
	movl	$255, %eax
	cmovael	%esi, %eax
	retq
.Lfunc_end50:
	.size	_ZN46_$LT$u128$u20$as$u20$core..cmp..PartialOrd$GT$11partial_cmp17he55917ab99aa7356E, .Lfunc_end50-_ZN46_$LT$u128$u20$as$u20$core..cmp..PartialOrd$GT$11partial_cmp17he55917ab99aa7356E

	.section	".text._ZN46_$LT$u128$u20$as$u20$core..cmp..PartialOrd$GT$2le17he0d0d82f82663509E","ax",@progbits
	.globl	_ZN46_$LT$u128$u20$as$u20$core..cmp..PartialOrd$GT$2le17he0d0d82f82663509E
	.p2align	4, 0x90
	.type	_ZN46_$LT$u128$u20$as$u20$core..cmp..PartialOrd$GT$2le17he0d0d82f82663509E,@function
_ZN46_$LT$u128$u20$as$u20$core..cmp..PartialOrd$GT$2le17he0d0d82f82663509E:
	movq	(%rsi), %rax
	movq	8(%rsi), %rcx
	cmpq	(%rdi), %rax
	sbbq	8(%rdi), %rcx
	setae	%al
	retq
.Lfunc_end51:
	.size	_ZN46_$LT$u128$u20$as$u20$core..cmp..PartialOrd$GT$2le17he0d0d82f82663509E, .Lfunc_end51-_ZN46_$LT$u128$u20$as$u20$core..cmp..PartialOrd$GT$2le17he0d0d82f82663509E

	.section	".text._ZN46_$LT$u128$u20$as$u20$core..cmp..PartialOrd$GT$2lt17h0635b1ece8a4c84fE","ax",@progbits
	.globl	_ZN46_$LT$u128$u20$as$u20$core..cmp..PartialOrd$GT$2lt17h0635b1ece8a4c84fE
	.p2align	4, 0x90
	.type	_ZN46_$LT$u128$u20$as$u20$core..cmp..PartialOrd$GT$2lt17h0635b1ece8a4c84fE,@function
_ZN46_$LT$u128$u20$as$u20$core..cmp..PartialOrd$GT$2lt17h0635b1ece8a4c84fE:
	movq	(%rdi), %rax
	movq	8(%rdi), %rcx
	cmpq	(%rsi), %rax
	sbbq	8(%rsi), %rcx
	setb	%al
	retq
.Lfunc_end52:
	.size	_ZN46_$LT$u128$u20$as$u20$core..cmp..PartialOrd$GT$2lt17h0635b1ece8a4c84fE, .Lfunc_end52-_ZN46_$LT$u128$u20$as$u20$core..cmp..PartialOrd$GT$2lt17h0635b1ece8a4c84fE

	.section	".text._ZN46_$LT$u128$u20$as$u20$core..cmp..PartialOrd$GT$2ge17h35d1b82eaf63f64dE","ax",@progbits
	.globl	_ZN46_$LT$u128$u20$as$u20$core..cmp..PartialOrd$GT$2ge17h35d1b82eaf63f64dE
	.p2align	4, 0x90
	.type	_ZN46_$LT$u128$u20$as$u20$core..cmp..PartialOrd$GT$2ge17h35d1b82eaf63f64dE,@function
_ZN46_$LT$u128$u20$as$u20$core..cmp..PartialOrd$GT$2ge17h35d1b82eaf63f64dE:
	movq	(%rdi), %rax
	movq	8(%rdi), %rcx
	cmpq	(%rsi), %rax
	sbbq	8(%rsi), %rcx
	setae	%al
	retq
.Lfunc_end53:
	.size	_ZN46_$LT$u128$u20$as$u20$core..cmp..PartialOrd$GT$2ge17h35d1b82eaf63f64dE, .Lfunc_end53-_ZN46_$LT$u128$u20$as$u20$core..cmp..PartialOrd$GT$2ge17h35d1b82eaf63f64dE

	.section	".text._ZN46_$LT$u128$u20$as$u20$core..cmp..PartialOrd$GT$2gt17he8eb36e7e5ee6491E","ax",@progbits
	.globl	_ZN46_$LT$u128$u20$as$u20$core..cmp..PartialOrd$GT$2gt17he8eb36e7e5ee6491E
	.p2align	4, 0x90
	.type	_ZN46_$LT$u128$u20$as$u20$core..cmp..PartialOrd$GT$2gt17he8eb36e7e5ee6491E,@function
_ZN46_$LT$u128$u20$as$u20$core..cmp..PartialOrd$GT$2gt17he8eb36e7e5ee6491E:
	movq	(%rsi), %rax
	movq	8(%rsi), %rcx
	cmpq	(%rdi), %rax
	sbbq	8(%rdi), %rcx
	setb	%al
	retq
.Lfunc_end54:
	.size	_ZN46_$LT$u128$u20$as$u20$core..cmp..PartialOrd$GT$2gt17he8eb36e7e5ee6491E, .Lfunc_end54-_ZN46_$LT$u128$u20$as$u20$core..cmp..PartialOrd$GT$2gt17he8eb36e7e5ee6491E

	.section	".text._ZN39_$LT$u128$u20$as$u20$core..cmp..Ord$GT$3cmp17h7600b6fb6af543feE","ax",@progbits
	.globl	_ZN39_$LT$u128$u20$as$u20$core..cmp..Ord$GT$3cmp17h7600b6fb6af543feE
	.p2align	4, 0x90
	.type	_ZN39_$LT$u128$u20$as$u20$core..cmp..Ord$GT$3cmp17h7600b6fb6af543feE,@function
_ZN39_$LT$u128$u20$as$u20$core..cmp..Ord$GT$3cmp17h7600b6fb6af543feE:
	movq	(%rdi), %r8
	movq	8(%rdi), %rcx
	movq	(%rsi), %rdx
	movq	8(%rsi), %r9
	movq	%rcx, %rdi
	xorq	%r9, %rdi
	movq	%r8, %rax
	xorq	%rdx, %rax
	xorl	%esi, %esi
	orq	%rdi, %rax
	setne	%sil
	cmpq	%rdx, %r8
	sbbq	%r9, %rcx
	movl	$255, %eax
	cmovael	%esi, %eax
	retq
.Lfunc_end55:
	.size	_ZN39_$LT$u128$u20$as$u20$core..cmp..Ord$GT$3cmp17h7600b6fb6af543feE, .Lfunc_end55-_ZN39_$LT$u128$u20$as$u20$core..cmp..Ord$GT$3cmp17h7600b6fb6af543feE

	.section	".text._ZN43_$LT$i8$u20$as$u20$core..cmp..PartialEq$GT$2eq17h540ee63a1513c4bfE","ax",@progbits
	.globl	_ZN43_$LT$i8$u20$as$u20$core..cmp..PartialEq$GT$2eq17h540ee63a1513c4bfE
	.p2align	4, 0x90
	.type	_ZN43_$LT$i8$u20$as$u20$core..cmp..PartialEq$GT$2eq17h540ee63a1513c4bfE,@function
_ZN43_$LT$i8$u20$as$u20$core..cmp..PartialEq$GT$2eq17h540ee63a1513c4bfE:
	movb	(%rdi), %al
	cmpb	(%rsi), %al
	sete	%al
	retq
.Lfunc_end56:
	.size	_ZN43_$LT$i8$u20$as$u20$core..cmp..PartialEq$GT$2eq17h540ee63a1513c4bfE, .Lfunc_end56-_ZN43_$LT$i8$u20$as$u20$core..cmp..PartialEq$GT$2eq17h540ee63a1513c4bfE

	.section	".text._ZN44_$LT$i8$u20$as$u20$core..cmp..PartialOrd$GT$11partial_cmp17he998191562c2d70aE","ax",@progbits
	.globl	_ZN44_$LT$i8$u20$as$u20$core..cmp..PartialOrd$GT$11partial_cmp17he998191562c2d70aE
	.p2align	4, 0x90
	.type	_ZN44_$LT$i8$u20$as$u20$core..cmp..PartialOrd$GT$11partial_cmp17he998191562c2d70aE,@function
_ZN44_$LT$i8$u20$as$u20$core..cmp..PartialOrd$GT$11partial_cmp17he998191562c2d70aE:
	movb	(%rdi), %al
	xorl	%ecx, %ecx
	cmpb	(%rsi), %al
	setne	%cl
	movl	$255, %eax
	cmovgel	%ecx, %eax
	retq
.Lfunc_end57:
	.size	_ZN44_$LT$i8$u20$as$u20$core..cmp..PartialOrd$GT$11partial_cmp17he998191562c2d70aE, .Lfunc_end57-_ZN44_$LT$i8$u20$as$u20$core..cmp..PartialOrd$GT$11partial_cmp17he998191562c2d70aE

	.section	".text._ZN44_$LT$i8$u20$as$u20$core..cmp..PartialOrd$GT$2le17h4df7e3afce3f3beeE","ax",@progbits
	.globl	_ZN44_$LT$i8$u20$as$u20$core..cmp..PartialOrd$GT$2le17h4df7e3afce3f3beeE
	.p2align	4, 0x90
	.type	_ZN44_$LT$i8$u20$as$u20$core..cmp..PartialOrd$GT$2le17h4df7e3afce3f3beeE,@function
_ZN44_$LT$i8$u20$as$u20$core..cmp..PartialOrd$GT$2le17h4df7e3afce3f3beeE:
	movb	(%rdi), %al
	cmpb	(%rsi), %al
	setle	%al
	retq
.Lfunc_end58:
	.size	_ZN44_$LT$i8$u20$as$u20$core..cmp..PartialOrd$GT$2le17h4df7e3afce3f3beeE, .Lfunc_end58-_ZN44_$LT$i8$u20$as$u20$core..cmp..PartialOrd$GT$2le17h4df7e3afce3f3beeE

	.section	".text._ZN44_$LT$i8$u20$as$u20$core..cmp..PartialOrd$GT$2lt17h04765386c13aec74E","ax",@progbits
	.globl	_ZN44_$LT$i8$u20$as$u20$core..cmp..PartialOrd$GT$2lt17h04765386c13aec74E
	.p2align	4, 0x90
	.type	_ZN44_$LT$i8$u20$as$u20$core..cmp..PartialOrd$GT$2lt17h04765386c13aec74E,@function
_ZN44_$LT$i8$u20$as$u20$core..cmp..PartialOrd$GT$2lt17h04765386c13aec74E:
	movb	(%rdi), %al
	cmpb	(%rsi), %al
	setl	%al
	retq
.Lfunc_end59:
	.size	_ZN44_$LT$i8$u20$as$u20$core..cmp..PartialOrd$GT$2lt17h04765386c13aec74E, .Lfunc_end59-_ZN44_$LT$i8$u20$as$u20$core..cmp..PartialOrd$GT$2lt17h04765386c13aec74E

	.section	".text._ZN44_$LT$i8$u20$as$u20$core..cmp..PartialOrd$GT$2ge17h3bd30bf526298c79E","ax",@progbits
	.globl	_ZN44_$LT$i8$u20$as$u20$core..cmp..PartialOrd$GT$2ge17h3bd30bf526298c79E
	.p2align	4, 0x90
	.type	_ZN44_$LT$i8$u20$as$u20$core..cmp..PartialOrd$GT$2ge17h3bd30bf526298c79E,@function
_ZN44_$LT$i8$u20$as$u20$core..cmp..PartialOrd$GT$2ge17h3bd30bf526298c79E:
	movb	(%rdi), %al
	cmpb	(%rsi), %al
	setge	%al
	retq
.Lfunc_end60:
	.size	_ZN44_$LT$i8$u20$as$u20$core..cmp..PartialOrd$GT$2ge17h3bd30bf526298c79E, .Lfunc_end60-_ZN44_$LT$i8$u20$as$u20$core..cmp..PartialOrd$GT$2ge17h3bd30bf526298c79E

	.section	".text._ZN44_$LT$i8$u20$as$u20$core..cmp..PartialOrd$GT$2gt17h69eb67962661bf43E","ax",@progbits
	.globl	_ZN44_$LT$i8$u20$as$u20$core..cmp..PartialOrd$GT$2gt17h69eb67962661bf43E
	.p2align	4, 0x90
	.type	_ZN44_$LT$i8$u20$as$u20$core..cmp..PartialOrd$GT$2gt17h69eb67962661bf43E,@function
_ZN44_$LT$i8$u20$as$u20$core..cmp..PartialOrd$GT$2gt17h69eb67962661bf43E:
	movb	(%rdi), %al
	cmpb	(%rsi), %al
	setg	%al
	retq
.Lfunc_end61:
	.size	_ZN44_$LT$i8$u20$as$u20$core..cmp..PartialOrd$GT$2gt17h69eb67962661bf43E, .Lfunc_end61-_ZN44_$LT$i8$u20$as$u20$core..cmp..PartialOrd$GT$2gt17h69eb67962661bf43E

	.section	".text._ZN37_$LT$i8$u20$as$u20$core..cmp..Ord$GT$3cmp17hfa86728ed9f99dcaE","ax",@progbits
	.globl	_ZN37_$LT$i8$u20$as$u20$core..cmp..Ord$GT$3cmp17hfa86728ed9f99dcaE
	.p2align	4, 0x90
	.type	_ZN37_$LT$i8$u20$as$u20$core..cmp..Ord$GT$3cmp17hfa86728ed9f99dcaE,@function
_ZN37_$LT$i8$u20$as$u20$core..cmp..Ord$GT$3cmp17hfa86728ed9f99dcaE:
	movb	(%rdi), %al
	xorl	%ecx, %ecx
	cmpb	(%rsi), %al
	setne	%cl
	movl	$255, %eax
	cmovgel	%ecx, %eax
	retq
.Lfunc_end62:
	.size	_ZN37_$LT$i8$u20$as$u20$core..cmp..Ord$GT$3cmp17hfa86728ed9f99dcaE, .Lfunc_end62-_ZN37_$LT$i8$u20$as$u20$core..cmp..Ord$GT$3cmp17hfa86728ed9f99dcaE

	.section	".text._ZN44_$LT$i16$u20$as$u20$core..cmp..PartialEq$GT$2eq17he1eed0a8d2f7cdafE","ax",@progbits
	.globl	_ZN44_$LT$i16$u20$as$u20$core..cmp..PartialEq$GT$2eq17he1eed0a8d2f7cdafE
	.p2align	4, 0x90
	.type	_ZN44_$LT$i16$u20$as$u20$core..cmp..PartialEq$GT$2eq17he1eed0a8d2f7cdafE,@function
_ZN44_$LT$i16$u20$as$u20$core..cmp..PartialEq$GT$2eq17he1eed0a8d2f7cdafE:
	movzwl	(%rdi), %eax
	cmpw	(%rsi), %ax
	sete	%al
	retq
.Lfunc_end63:
	.size	_ZN44_$LT$i16$u20$as$u20$core..cmp..PartialEq$GT$2eq17he1eed0a8d2f7cdafE, .Lfunc_end63-_ZN44_$LT$i16$u20$as$u20$core..cmp..PartialEq$GT$2eq17he1eed0a8d2f7cdafE

	.section	".text._ZN45_$LT$i16$u20$as$u20$core..cmp..PartialOrd$GT$11partial_cmp17h11107557f73d6250E","ax",@progbits
	.globl	_ZN45_$LT$i16$u20$as$u20$core..cmp..PartialOrd$GT$11partial_cmp17h11107557f73d6250E
	.p2align	4, 0x90
	.type	_ZN45_$LT$i16$u20$as$u20$core..cmp..PartialOrd$GT$11partial_cmp17h11107557f73d6250E,@function
_ZN45_$LT$i16$u20$as$u20$core..cmp..PartialOrd$GT$11partial_cmp17h11107557f73d6250E:
	movzwl	(%rdi), %eax
	xorl	%ecx, %ecx
	cmpw	(%rsi), %ax
	setne	%cl
	movl	$255, %eax
	cmovgel	%ecx, %eax
	retq
.Lfunc_end64:
	.size	_ZN45_$LT$i16$u20$as$u20$core..cmp..PartialOrd$GT$11partial_cmp17h11107557f73d6250E, .Lfunc_end64-_ZN45_$LT$i16$u20$as$u20$core..cmp..PartialOrd$GT$11partial_cmp17h11107557f73d6250E

	.section	".text._ZN45_$LT$i16$u20$as$u20$core..cmp..PartialOrd$GT$2le17h7122bad768791fe0E","ax",@progbits
	.globl	_ZN45_$LT$i16$u20$as$u20$core..cmp..PartialOrd$GT$2le17h7122bad768791fe0E
	.p2align	4, 0x90
	.type	_ZN45_$LT$i16$u20$as$u20$core..cmp..PartialOrd$GT$2le17h7122bad768791fe0E,@function
_ZN45_$LT$i16$u20$as$u20$core..cmp..PartialOrd$GT$2le17h7122bad768791fe0E:
	movzwl	(%rdi), %eax
	cmpw	(%rsi), %ax
	setle	%al
	retq
.Lfunc_end65:
	.size	_ZN45_$LT$i16$u20$as$u20$core..cmp..PartialOrd$GT$2le17h7122bad768791fe0E, .Lfunc_end65-_ZN45_$LT$i16$u20$as$u20$core..cmp..PartialOrd$GT$2le17h7122bad768791fe0E

	.section	".text._ZN45_$LT$i16$u20$as$u20$core..cmp..PartialOrd$GT$2lt17hda9890fe3c792cd7E","ax",@progbits
	.globl	_ZN45_$LT$i16$u20$as$u20$core..cmp..PartialOrd$GT$2lt17hda9890fe3c792cd7E
	.p2align	4, 0x90
	.type	_ZN45_$LT$i16$u20$as$u20$core..cmp..PartialOrd$GT$2lt17hda9890fe3c792cd7E,@function
_ZN45_$LT$i16$u20$as$u20$core..cmp..PartialOrd$GT$2lt17hda9890fe3c792cd7E:
	movzwl	(%rdi), %eax
	cmpw	(%rsi), %ax
	setl	%al
	retq
.Lfunc_end66:
	.size	_ZN45_$LT$i16$u20$as$u20$core..cmp..PartialOrd$GT$2lt17hda9890fe3c792cd7E, .Lfunc_end66-_ZN45_$LT$i16$u20$as$u20$core..cmp..PartialOrd$GT$2lt17hda9890fe3c792cd7E

	.section	".text._ZN45_$LT$i16$u20$as$u20$core..cmp..PartialOrd$GT$2ge17hcf16c1a617e4d74dE","ax",@progbits
	.globl	_ZN45_$LT$i16$u20$as$u20$core..cmp..PartialOrd$GT$2ge17hcf16c1a617e4d74dE
	.p2align	4, 0x90
	.type	_ZN45_$LT$i16$u20$as$u20$core..cmp..PartialOrd$GT$2ge17hcf16c1a617e4d74dE,@function
_ZN45_$LT$i16$u20$as$u20$core..cmp..PartialOrd$GT$2ge17hcf16c1a617e4d74dE:
	movzwl	(%rdi), %eax
	cmpw	(%rsi), %ax
	setge	%al
	retq
.Lfunc_end67:
	.size	_ZN45_$LT$i16$u20$as$u20$core..cmp..PartialOrd$GT$2ge17hcf16c1a617e4d74dE, .Lfunc_end67-_ZN45_$LT$i16$u20$as$u20$core..cmp..PartialOrd$GT$2ge17hcf16c1a617e4d74dE

	.section	".text._ZN45_$LT$i16$u20$as$u20$core..cmp..PartialOrd$GT$2gt17hbc38e7d01d45d94eE","ax",@progbits
	.globl	_ZN45_$LT$i16$u20$as$u20$core..cmp..PartialOrd$GT$2gt17hbc38e7d01d45d94eE
	.p2align	4, 0x90
	.type	_ZN45_$LT$i16$u20$as$u20$core..cmp..PartialOrd$GT$2gt17hbc38e7d01d45d94eE,@function
_ZN45_$LT$i16$u20$as$u20$core..cmp..PartialOrd$GT$2gt17hbc38e7d01d45d94eE:
	movzwl	(%rdi), %eax
	cmpw	(%rsi), %ax
	setg	%al
	retq
.Lfunc_end68:
	.size	_ZN45_$LT$i16$u20$as$u20$core..cmp..PartialOrd$GT$2gt17hbc38e7d01d45d94eE, .Lfunc_end68-_ZN45_$LT$i16$u20$as$u20$core..cmp..PartialOrd$GT$2gt17hbc38e7d01d45d94eE

	.section	".text._ZN38_$LT$i16$u20$as$u20$core..cmp..Ord$GT$3cmp17h973a8520c4d1c4a9E","ax",@progbits
	.globl	_ZN38_$LT$i16$u20$as$u20$core..cmp..Ord$GT$3cmp17h973a8520c4d1c4a9E
	.p2align	4, 0x90
	.type	_ZN38_$LT$i16$u20$as$u20$core..cmp..Ord$GT$3cmp17h973a8520c4d1c4a9E,@function
_ZN38_$LT$i16$u20$as$u20$core..cmp..Ord$GT$3cmp17h973a8520c4d1c4a9E:
	movzwl	(%rdi), %eax
	xorl	%ecx, %ecx
	cmpw	(%rsi), %ax
	setne	%cl
	movl	$255, %eax
	cmovgel	%ecx, %eax
	retq
.Lfunc_end69:
	.size	_ZN38_$LT$i16$u20$as$u20$core..cmp..Ord$GT$3cmp17h973a8520c4d1c4a9E, .Lfunc_end69-_ZN38_$LT$i16$u20$as$u20$core..cmp..Ord$GT$3cmp17h973a8520c4d1c4a9E

	.section	".text._ZN44_$LT$i32$u20$as$u20$core..cmp..PartialEq$GT$2eq17h506aacb5f59ef873E","ax",@progbits
	.globl	_ZN44_$LT$i32$u20$as$u20$core..cmp..PartialEq$GT$2eq17h506aacb5f59ef873E
	.p2align	4, 0x90
	.type	_ZN44_$LT$i32$u20$as$u20$core..cmp..PartialEq$GT$2eq17h506aacb5f59ef873E,@function
_ZN44_$LT$i32$u20$as$u20$core..cmp..PartialEq$GT$2eq17h506aacb5f59ef873E:
	movl	(%rdi), %eax
	cmpl	(%rsi), %eax
	sete	%al
	retq
.Lfunc_end70:
	.size	_ZN44_$LT$i32$u20$as$u20$core..cmp..PartialEq$GT$2eq17h506aacb5f59ef873E, .Lfunc_end70-_ZN44_$LT$i32$u20$as$u20$core..cmp..PartialEq$GT$2eq17h506aacb5f59ef873E

	.section	".text._ZN45_$LT$i32$u20$as$u20$core..cmp..PartialOrd$GT$11partial_cmp17he48a22e70a4e473dE","ax",@progbits
	.globl	_ZN45_$LT$i32$u20$as$u20$core..cmp..PartialOrd$GT$11partial_cmp17he48a22e70a4e473dE
	.p2align	4, 0x90
	.type	_ZN45_$LT$i32$u20$as$u20$core..cmp..PartialOrd$GT$11partial_cmp17he48a22e70a4e473dE,@function
_ZN45_$LT$i32$u20$as$u20$core..cmp..PartialOrd$GT$11partial_cmp17he48a22e70a4e473dE:
	movl	(%rdi), %eax
	xorl	%ecx, %ecx
	cmpl	(%rsi), %eax
	setne	%cl
	movl	$255, %eax
	cmovgel	%ecx, %eax
	retq
.Lfunc_end71:
	.size	_ZN45_$LT$i32$u20$as$u20$core..cmp..PartialOrd$GT$11partial_cmp17he48a22e70a4e473dE, .Lfunc_end71-_ZN45_$LT$i32$u20$as$u20$core..cmp..PartialOrd$GT$11partial_cmp17he48a22e70a4e473dE

	.section	".text._ZN45_$LT$i32$u20$as$u20$core..cmp..PartialOrd$GT$2le17h16aed50869ec24acE","ax",@progbits
	.globl	_ZN45_$LT$i32$u20$as$u20$core..cmp..PartialOrd$GT$2le17h16aed50869ec24acE
	.p2align	4, 0x90
	.type	_ZN45_$LT$i32$u20$as$u20$core..cmp..PartialOrd$GT$2le17h16aed50869ec24acE,@function
_ZN45_$LT$i32$u20$as$u20$core..cmp..PartialOrd$GT$2le17h16aed50869ec24acE:
	movl	(%rdi), %eax
	cmpl	(%rsi), %eax
	setle	%al
	retq
.Lfunc_end72:
	.size	_ZN45_$LT$i32$u20$as$u20$core..cmp..PartialOrd$GT$2le17h16aed50869ec24acE, .Lfunc_end72-_ZN45_$LT$i32$u20$as$u20$core..cmp..PartialOrd$GT$2le17h16aed50869ec24acE

	.section	".text._ZN45_$LT$i32$u20$as$u20$core..cmp..PartialOrd$GT$2lt17h22f16508b76efc56E","ax",@progbits
	.globl	_ZN45_$LT$i32$u20$as$u20$core..cmp..PartialOrd$GT$2lt17h22f16508b76efc56E
	.p2align	4, 0x90
	.type	_ZN45_$LT$i32$u20$as$u20$core..cmp..PartialOrd$GT$2lt17h22f16508b76efc56E,@function
_ZN45_$LT$i32$u20$as$u20$core..cmp..PartialOrd$GT$2lt17h22f16508b76efc56E:
	movl	(%rdi), %eax
	cmpl	(%rsi), %eax
	setl	%al
	retq
.Lfunc_end73:
	.size	_ZN45_$LT$i32$u20$as$u20$core..cmp..PartialOrd$GT$2lt17h22f16508b76efc56E, .Lfunc_end73-_ZN45_$LT$i32$u20$as$u20$core..cmp..PartialOrd$GT$2lt17h22f16508b76efc56E

	.section	".text._ZN45_$LT$i32$u20$as$u20$core..cmp..PartialOrd$GT$2ge17h3678e233f2828bcbE","ax",@progbits
	.globl	_ZN45_$LT$i32$u20$as$u20$core..cmp..PartialOrd$GT$2ge17h3678e233f2828bcbE
	.p2align	4, 0x90
	.type	_ZN45_$LT$i32$u20$as$u20$core..cmp..PartialOrd$GT$2ge17h3678e233f2828bcbE,@function
_ZN45_$LT$i32$u20$as$u20$core..cmp..PartialOrd$GT$2ge17h3678e233f2828bcbE:
	movl	(%rdi), %eax
	cmpl	(%rsi), %eax
	setge	%al
	retq
.Lfunc_end74:
	.size	_ZN45_$LT$i32$u20$as$u20$core..cmp..PartialOrd$GT$2ge17h3678e233f2828bcbE, .Lfunc_end74-_ZN45_$LT$i32$u20$as$u20$core..cmp..PartialOrd$GT$2ge17h3678e233f2828bcbE

	.section	".text._ZN45_$LT$i32$u20$as$u20$core..cmp..PartialOrd$GT$2gt17h478375c317bc6cb8E","ax",@progbits
	.globl	_ZN45_$LT$i32$u20$as$u20$core..cmp..PartialOrd$GT$2gt17h478375c317bc6cb8E
	.p2align	4, 0x90
	.type	_ZN45_$LT$i32$u20$as$u20$core..cmp..PartialOrd$GT$2gt17h478375c317bc6cb8E,@function
_ZN45_$LT$i32$u20$as$u20$core..cmp..PartialOrd$GT$2gt17h478375c317bc6cb8E:
	movl	(%rdi), %eax
	cmpl	(%rsi), %eax
	setg	%al
	retq
.Lfunc_end75:
	.size	_ZN45_$LT$i32$u20$as$u20$core..cmp..PartialOrd$GT$2gt17h478375c317bc6cb8E, .Lfunc_end75-_ZN45_$LT$i32$u20$as$u20$core..cmp..PartialOrd$GT$2gt17h478375c317bc6cb8E

	.section	".text._ZN38_$LT$i32$u20$as$u20$core..cmp..Ord$GT$3cmp17h9d436fcc0c669cfdE","ax",@progbits
	.globl	_ZN38_$LT$i32$u20$as$u20$core..cmp..Ord$GT$3cmp17h9d436fcc0c669cfdE
	.p2align	4, 0x90
	.type	_ZN38_$LT$i32$u20$as$u20$core..cmp..Ord$GT$3cmp17h9d436fcc0c669cfdE,@function
_ZN38_$LT$i32$u20$as$u20$core..cmp..Ord$GT$3cmp17h9d436fcc0c669cfdE:
	movl	(%rdi), %eax
	xorl	%ecx, %ecx
	cmpl	(%rsi), %eax
	setne	%cl
	movl	$255, %eax
	cmovgel	%ecx, %eax
	retq
.Lfunc_end76:
	.size	_ZN38_$LT$i32$u20$as$u20$core..cmp..Ord$GT$3cmp17h9d436fcc0c669cfdE, .Lfunc_end76-_ZN38_$LT$i32$u20$as$u20$core..cmp..Ord$GT$3cmp17h9d436fcc0c669cfdE

	.section	".text._ZN44_$LT$i64$u20$as$u20$core..cmp..PartialEq$GT$2eq17h3761ba94017af9d8E","ax",@progbits
	.globl	_ZN44_$LT$i64$u20$as$u20$core..cmp..PartialEq$GT$2eq17h3761ba94017af9d8E
	.p2align	4, 0x90
	.type	_ZN44_$LT$i64$u20$as$u20$core..cmp..PartialEq$GT$2eq17h3761ba94017af9d8E,@function
_ZN44_$LT$i64$u20$as$u20$core..cmp..PartialEq$GT$2eq17h3761ba94017af9d8E:
	movq	(%rdi), %rax
	cmpq	(%rsi), %rax
	sete	%al
	retq
.Lfunc_end77:
	.size	_ZN44_$LT$i64$u20$as$u20$core..cmp..PartialEq$GT$2eq17h3761ba94017af9d8E, .Lfunc_end77-_ZN44_$LT$i64$u20$as$u20$core..cmp..PartialEq$GT$2eq17h3761ba94017af9d8E

	.section	".text._ZN45_$LT$i64$u20$as$u20$core..cmp..PartialOrd$GT$11partial_cmp17h4d2fdd84c44ad7e0E","ax",@progbits
	.globl	_ZN45_$LT$i64$u20$as$u20$core..cmp..PartialOrd$GT$11partial_cmp17h4d2fdd84c44ad7e0E
	.p2align	4, 0x90
	.type	_ZN45_$LT$i64$u20$as$u20$core..cmp..PartialOrd$GT$11partial_cmp17h4d2fdd84c44ad7e0E,@function
_ZN45_$LT$i64$u20$as$u20$core..cmp..PartialOrd$GT$11partial_cmp17h4d2fdd84c44ad7e0E:
	movq	(%rdi), %rax
	xorl	%ecx, %ecx
	cmpq	(%rsi), %rax
	setne	%cl
	movl	$255, %eax
	cmovgel	%ecx, %eax
	retq
.Lfunc_end78:
	.size	_ZN45_$LT$i64$u20$as$u20$core..cmp..PartialOrd$GT$11partial_cmp17h4d2fdd84c44ad7e0E, .Lfunc_end78-_ZN45_$LT$i64$u20$as$u20$core..cmp..PartialOrd$GT$11partial_cmp17h4d2fdd84c44ad7e0E

	.section	".text._ZN45_$LT$i64$u20$as$u20$core..cmp..PartialOrd$GT$2le17h63e67cdb54217856E","ax",@progbits
	.globl	_ZN45_$LT$i64$u20$as$u20$core..cmp..PartialOrd$GT$2le17h63e67cdb54217856E
	.p2align	4, 0x90
	.type	_ZN45_$LT$i64$u20$as$u20$core..cmp..PartialOrd$GT$2le17h63e67cdb54217856E,@function
_ZN45_$LT$i64$u20$as$u20$core..cmp..PartialOrd$GT$2le17h63e67cdb54217856E:
	movq	(%rdi), %rax
	cmpq	(%rsi), %rax
	setle	%al
	retq
.Lfunc_end79:
	.size	_ZN45_$LT$i64$u20$as$u20$core..cmp..PartialOrd$GT$2le17h63e67cdb54217856E, .Lfunc_end79-_ZN45_$LT$i64$u20$as$u20$core..cmp..PartialOrd$GT$2le17h63e67cdb54217856E

	.section	".text._ZN45_$LT$i64$u20$as$u20$core..cmp..PartialOrd$GT$2lt17he76ba084c627707aE","ax",@progbits
	.globl	_ZN45_$LT$i64$u20$as$u20$core..cmp..PartialOrd$GT$2lt17he76ba084c627707aE
	.p2align	4, 0x90
	.type	_ZN45_$LT$i64$u20$as$u20$core..cmp..PartialOrd$GT$2lt17he76ba084c627707aE,@function
_ZN45_$LT$i64$u20$as$u20$core..cmp..PartialOrd$GT$2lt17he76ba084c627707aE:
	movq	(%rdi), %rax
	cmpq	(%rsi), %rax
	setl	%al
	retq
.Lfunc_end80:
	.size	_ZN45_$LT$i64$u20$as$u20$core..cmp..PartialOrd$GT$2lt17he76ba084c627707aE, .Lfunc_end80-_ZN45_$LT$i64$u20$as$u20$core..cmp..PartialOrd$GT$2lt17he76ba084c627707aE

	.section	".text._ZN45_$LT$i64$u20$as$u20$core..cmp..PartialOrd$GT$2ge17ha78db7fec7fa5f7cE","ax",@progbits
	.globl	_ZN45_$LT$i64$u20$as$u20$core..cmp..PartialOrd$GT$2ge17ha78db7fec7fa5f7cE
	.p2align	4, 0x90
	.type	_ZN45_$LT$i64$u20$as$u20$core..cmp..PartialOrd$GT$2ge17ha78db7fec7fa5f7cE,@function
_ZN45_$LT$i64$u20$as$u20$core..cmp..PartialOrd$GT$2ge17ha78db7fec7fa5f7cE:
	movq	(%rdi), %rax
	cmpq	(%rsi), %rax
	setge	%al
	retq
.Lfunc_end81:
	.size	_ZN45_$LT$i64$u20$as$u20$core..cmp..PartialOrd$GT$2ge17ha78db7fec7fa5f7cE, .Lfunc_end81-_ZN45_$LT$i64$u20$as$u20$core..cmp..PartialOrd$GT$2ge17ha78db7fec7fa5f7cE

	.section	".text._ZN45_$LT$i64$u20$as$u20$core..cmp..PartialOrd$GT$2gt17h999215bc091ded86E","ax",@progbits
	.globl	_ZN45_$LT$i64$u20$as$u20$core..cmp..PartialOrd$GT$2gt17h999215bc091ded86E
	.p2align	4, 0x90
	.type	_ZN45_$LT$i64$u20$as$u20$core..cmp..PartialOrd$GT$2gt17h999215bc091ded86E,@function
_ZN45_$LT$i64$u20$as$u20$core..cmp..PartialOrd$GT$2gt17h999215bc091ded86E:
	movq	(%rdi), %rax
	cmpq	(%rsi), %rax
	setg	%al
	retq
.Lfunc_end82:
	.size	_ZN45_$LT$i64$u20$as$u20$core..cmp..PartialOrd$GT$2gt17h999215bc091ded86E, .Lfunc_end82-_ZN45_$LT$i64$u20$as$u20$core..cmp..PartialOrd$GT$2gt17h999215bc091ded86E

	.section	".text._ZN38_$LT$i64$u20$as$u20$core..cmp..Ord$GT$3cmp17h4c65a4ba69c9e524E","ax",@progbits
	.globl	_ZN38_$LT$i64$u20$as$u20$core..cmp..Ord$GT$3cmp17h4c65a4ba69c9e524E
	.p2align	4, 0x90
	.type	_ZN38_$LT$i64$u20$as$u20$core..cmp..Ord$GT$3cmp17h4c65a4ba69c9e524E,@function
_ZN38_$LT$i64$u20$as$u20$core..cmp..Ord$GT$3cmp17h4c65a4ba69c9e524E:
	movq	(%rdi), %rax
	xorl	%ecx, %ecx
	cmpq	(%rsi), %rax
	setne	%cl
	movl	$255, %eax
	cmovgel	%ecx, %eax
	retq
.Lfunc_end83:
	.size	_ZN38_$LT$i64$u20$as$u20$core..cmp..Ord$GT$3cmp17h4c65a4ba69c9e524E, .Lfunc_end83-_ZN38_$LT$i64$u20$as$u20$core..cmp..Ord$GT$3cmp17h4c65a4ba69c9e524E

	.section	".text._ZN45_$LT$i128$u20$as$u20$core..cmp..PartialEq$GT$2eq17he56f825c189abdf3E","ax",@progbits
	.globl	_ZN45_$LT$i128$u20$as$u20$core..cmp..PartialEq$GT$2eq17he56f825c189abdf3E
	.p2align	4, 0x90
	.type	_ZN45_$LT$i128$u20$as$u20$core..cmp..PartialEq$GT$2eq17he56f825c189abdf3E,@function
_ZN45_$LT$i128$u20$as$u20$core..cmp..PartialEq$GT$2eq17he56f825c189abdf3E:
	movq	(%rdi), %rax
	movq	8(%rdi), %rcx
	xorq	8(%rsi), %rcx
	xorq	(%rsi), %rax
	orq	%rcx, %rax
	sete	%al
	retq
.Lfunc_end84:
	.size	_ZN45_$LT$i128$u20$as$u20$core..cmp..PartialEq$GT$2eq17he56f825c189abdf3E, .Lfunc_end84-_ZN45_$LT$i128$u20$as$u20$core..cmp..PartialEq$GT$2eq17he56f825c189abdf3E

	.section	".text._ZN46_$LT$i128$u20$as$u20$core..cmp..PartialOrd$GT$11partial_cmp17h944a8f9a2caefea2E","ax",@progbits
	.globl	_ZN46_$LT$i128$u20$as$u20$core..cmp..PartialOrd$GT$11partial_cmp17h944a8f9a2caefea2E
	.p2align	4, 0x90
	.type	_ZN46_$LT$i128$u20$as$u20$core..cmp..PartialOrd$GT$11partial_cmp17h944a8f9a2caefea2E,@function
_ZN46_$LT$i128$u20$as$u20$core..cmp..PartialOrd$GT$11partial_cmp17h944a8f9a2caefea2E:
	movq	(%rdi), %r8
	movq	8(%rdi), %rcx
	movq	(%rsi), %rdx
	movq	8(%rsi), %r9
	movq	%rcx, %rdi
	xorq	%r9, %rdi
	movq	%r8, %rax
	xorq	%rdx, %rax
	xorl	%esi, %esi
	orq	%rdi, %rax
	setne	%sil
	cmpq	%rdx, %r8
	sbbq	%r9, %rcx
	movl	$255, %eax
	cmovgel	%esi, %eax
	retq
.Lfunc_end85:
	.size	_ZN46_$LT$i128$u20$as$u20$core..cmp..PartialOrd$GT$11partial_cmp17h944a8f9a2caefea2E, .Lfunc_end85-_ZN46_$LT$i128$u20$as$u20$core..cmp..PartialOrd$GT$11partial_cmp17h944a8f9a2caefea2E

	.section	".text._ZN46_$LT$i128$u20$as$u20$core..cmp..PartialOrd$GT$2le17ha84e6c3cf60f5360E","ax",@progbits
	.globl	_ZN46_$LT$i128$u20$as$u20$core..cmp..PartialOrd$GT$2le17ha84e6c3cf60f5360E
	.p2align	4, 0x90
	.type	_ZN46_$LT$i128$u20$as$u20$core..cmp..PartialOrd$GT$2le17ha84e6c3cf60f5360E,@function
_ZN46_$LT$i128$u20$as$u20$core..cmp..PartialOrd$GT$2le17ha84e6c3cf60f5360E:
	movq	(%rsi), %rax
	movq	8(%rsi), %rcx
	cmpq	(%rdi), %rax
	sbbq	8(%rdi), %rcx
	setge	%al
	retq
.Lfunc_end86:
	.size	_ZN46_$LT$i128$u20$as$u20$core..cmp..PartialOrd$GT$2le17ha84e6c3cf60f5360E, .Lfunc_end86-_ZN46_$LT$i128$u20$as$u20$core..cmp..PartialOrd$GT$2le17ha84e6c3cf60f5360E

	.section	".text._ZN46_$LT$i128$u20$as$u20$core..cmp..PartialOrd$GT$2lt17h64078d6b3f282a6bE","ax",@progbits
	.globl	_ZN46_$LT$i128$u20$as$u20$core..cmp..PartialOrd$GT$2lt17h64078d6b3f282a6bE
	.p2align	4, 0x90
	.type	_ZN46_$LT$i128$u20$as$u20$core..cmp..PartialOrd$GT$2lt17h64078d6b3f282a6bE,@function
_ZN46_$LT$i128$u20$as$u20$core..cmp..PartialOrd$GT$2lt17h64078d6b3f282a6bE:
	movq	(%rdi), %rax
	movq	8(%rdi), %rcx
	cmpq	(%rsi), %rax
	sbbq	8(%rsi), %rcx
	setl	%al
	retq
.Lfunc_end87:
	.size	_ZN46_$LT$i128$u20$as$u20$core..cmp..PartialOrd$GT$2lt17h64078d6b3f282a6bE, .Lfunc_end87-_ZN46_$LT$i128$u20$as$u20$core..cmp..PartialOrd$GT$2lt17h64078d6b3f282a6bE

	.section	".text._ZN46_$LT$i128$u20$as$u20$core..cmp..PartialOrd$GT$2ge17h767515b7a1c37d87E","ax",@progbits
	.globl	_ZN46_$LT$i128$u20$as$u20$core..cmp..PartialOrd$GT$2ge17h767515b7a1c37d87E
	.p2align	4, 0x90
	.type	_ZN46_$LT$i128$u20$as$u20$core..cmp..PartialOrd$GT$2ge17h767515b7a1c37d87E,@function
_ZN46_$LT$i128$u20$as$u20$core..cmp..PartialOrd$GT$2ge17h767515b7a1c37d87E:
	movq	(%rdi), %rax
	movq	8(%rdi), %rcx
	cmpq	(%rsi), %rax
	sbbq	8(%rsi), %rcx
	setge	%al
	retq
.Lfunc_end88:
	.size	_ZN46_$LT$i128$u20$as$u20$core..cmp..PartialOrd$GT$2ge17h767515b7a1c37d87E, .Lfunc_end88-_ZN46_$LT$i128$u20$as$u20$core..cmp..PartialOrd$GT$2ge17h767515b7a1c37d87E

	.section	".text._ZN46_$LT$i128$u20$as$u20$core..cmp..PartialOrd$GT$2gt17ha898f4dc62bf3a13E","ax",@progbits
	.globl	_ZN46_$LT$i128$u20$as$u20$core..cmp..PartialOrd$GT$2gt17ha898f4dc62bf3a13E
	.p2align	4, 0x90
	.type	_ZN46_$LT$i128$u20$as$u20$core..cmp..PartialOrd$GT$2gt17ha898f4dc62bf3a13E,@function
_ZN46_$LT$i128$u20$as$u20$core..cmp..PartialOrd$GT$2gt17ha898f4dc62bf3a13E:
	movq	(%rsi), %rax
	movq	8(%rsi), %rcx
	cmpq	(%rdi), %rax
	sbbq	8(%rdi), %rcx
	setl	%al
	retq
.Lfunc_end89:
	.size	_ZN46_$LT$i128$u20$as$u20$core..cmp..PartialOrd$GT$2gt17ha898f4dc62bf3a13E, .Lfunc_end89-_ZN46_$LT$i128$u20$as$u20$core..cmp..PartialOrd$GT$2gt17ha898f4dc62bf3a13E

	.section	".text._ZN39_$LT$i128$u20$as$u20$core..cmp..Ord$GT$3cmp17h9cd6893ad30132ecE","ax",@progbits
	.globl	_ZN39_$LT$i128$u20$as$u20$core..cmp..Ord$GT$3cmp17h9cd6893ad30132ecE
	.p2align	4, 0x90
	.type	_ZN39_$LT$i128$u20$as$u20$core..cmp..Ord$GT$3cmp17h9cd6893ad30132ecE,@function
_ZN39_$LT$i128$u20$as$u20$core..cmp..Ord$GT$3cmp17h9cd6893ad30132ecE:
	movq	(%rdi), %r8
	movq	8(%rdi), %rcx
	movq	(%rsi), %rdx
	movq	8(%rsi), %r9
	movq	%rcx, %rdi
	xorq	%r9, %rdi
	movq	%r8, %rax
	xorq	%rdx, %rax
	xorl	%esi, %esi
	orq	%rdi, %rax
	setne	%sil
	cmpq	%rdx, %r8
	sbbq	%r9, %rcx
	movl	$255, %eax
	cmovgel	%esi, %eax
	retq
.Lfunc_end90:
	.size	_ZN39_$LT$i128$u20$as$u20$core..cmp..Ord$GT$3cmp17h9cd6893ad30132ecE, .Lfunc_end90-_ZN39_$LT$i128$u20$as$u20$core..cmp..Ord$GT$3cmp17h9cd6893ad30132ecE

	.section	".text._ZN45_$LT$char$u20$as$u20$core..cmp..PartialEq$GT$2eq17h95331b196addd7e2E","ax",@progbits
	.globl	_ZN45_$LT$char$u20$as$u20$core..cmp..PartialEq$GT$2eq17h95331b196addd7e2E
	.p2align	4, 0x90
	.type	_ZN45_$LT$char$u20$as$u20$core..cmp..PartialEq$GT$2eq17h95331b196addd7e2E,@function
_ZN45_$LT$char$u20$as$u20$core..cmp..PartialEq$GT$2eq17h95331b196addd7e2E:
	movl	(%rdi), %eax
	cmpl	(%rsi), %eax
	sete	%al
	retq
.Lfunc_end91:
	.size	_ZN45_$LT$char$u20$as$u20$core..cmp..PartialEq$GT$2eq17h95331b196addd7e2E, .Lfunc_end91-_ZN45_$LT$char$u20$as$u20$core..cmp..PartialEq$GT$2eq17h95331b196addd7e2E

	.section	".text._ZN46_$LT$char$u20$as$u20$core..cmp..PartialOrd$GT$11partial_cmp17ha2f4ee5210da6f87E","ax",@progbits
	.globl	_ZN46_$LT$char$u20$as$u20$core..cmp..PartialOrd$GT$11partial_cmp17ha2f4ee5210da6f87E
	.p2align	4, 0x90
	.type	_ZN46_$LT$char$u20$as$u20$core..cmp..PartialOrd$GT$11partial_cmp17ha2f4ee5210da6f87E,@function
_ZN46_$LT$char$u20$as$u20$core..cmp..PartialOrd$GT$11partial_cmp17ha2f4ee5210da6f87E:
	movl	(%rdi), %eax
	xorl	%ecx, %ecx
	cmpl	(%rsi), %eax
	setne	%cl
	movl	$255, %eax
	cmovael	%ecx, %eax
	retq
.Lfunc_end92:
	.size	_ZN46_$LT$char$u20$as$u20$core..cmp..PartialOrd$GT$11partial_cmp17ha2f4ee5210da6f87E, .Lfunc_end92-_ZN46_$LT$char$u20$as$u20$core..cmp..PartialOrd$GT$11partial_cmp17ha2f4ee5210da6f87E

	.section	".text._ZN46_$LT$char$u20$as$u20$core..cmp..PartialOrd$GT$2le17haa4a9c78d54f7786E","ax",@progbits
	.globl	_ZN46_$LT$char$u20$as$u20$core..cmp..PartialOrd$GT$2le17haa4a9c78d54f7786E
	.p2align	4, 0x90
	.type	_ZN46_$LT$char$u20$as$u20$core..cmp..PartialOrd$GT$2le17haa4a9c78d54f7786E,@function
_ZN46_$LT$char$u20$as$u20$core..cmp..PartialOrd$GT$2le17haa4a9c78d54f7786E:
	movl	(%rdi), %eax
	cmpl	(%rsi), %eax
	setbe	%al
	retq
.Lfunc_end93:
	.size	_ZN46_$LT$char$u20$as$u20$core..cmp..PartialOrd$GT$2le17haa4a9c78d54f7786E, .Lfunc_end93-_ZN46_$LT$char$u20$as$u20$core..cmp..PartialOrd$GT$2le17haa4a9c78d54f7786E

	.section	".text._ZN46_$LT$char$u20$as$u20$core..cmp..PartialOrd$GT$2lt17h72b7311d347180eaE","ax",@progbits
	.globl	_ZN46_$LT$char$u20$as$u20$core..cmp..PartialOrd$GT$2lt17h72b7311d347180eaE
	.p2align	4, 0x90
	.type	_ZN46_$LT$char$u20$as$u20$core..cmp..PartialOrd$GT$2lt17h72b7311d347180eaE,@function
_ZN46_$LT$char$u20$as$u20$core..cmp..PartialOrd$GT$2lt17h72b7311d347180eaE:
	movl	(%rdi), %eax
	cmpl	(%rsi), %eax
	setb	%al
	retq
.Lfunc_end94:
	.size	_ZN46_$LT$char$u20$as$u20$core..cmp..PartialOrd$GT$2lt17h72b7311d347180eaE, .Lfunc_end94-_ZN46_$LT$char$u20$as$u20$core..cmp..PartialOrd$GT$2lt17h72b7311d347180eaE

	.section	".text._ZN46_$LT$char$u20$as$u20$core..cmp..PartialOrd$GT$2ge17he5d87c453c46a8afE","ax",@progbits
	.globl	_ZN46_$LT$char$u20$as$u20$core..cmp..PartialOrd$GT$2ge17he5d87c453c46a8afE
	.p2align	4, 0x90
	.type	_ZN46_$LT$char$u20$as$u20$core..cmp..PartialOrd$GT$2ge17he5d87c453c46a8afE,@function
_ZN46_$LT$char$u20$as$u20$core..cmp..PartialOrd$GT$2ge17he5d87c453c46a8afE:
	movl	(%rdi), %eax
	cmpl	(%rsi), %eax
	setae	%al
	retq
.Lfunc_end95:
	.size	_ZN46_$LT$char$u20$as$u20$core..cmp..PartialOrd$GT$2ge17he5d87c453c46a8afE, .Lfunc_end95-_ZN46_$LT$char$u20$as$u20$core..cmp..PartialOrd$GT$2ge17he5d87c453c46a8afE

	.section	".text._ZN46_$LT$char$u20$as$u20$core..cmp..PartialOrd$GT$2gt17h25e4be60f085a13bE","ax",@progbits
	.globl	_ZN46_$LT$char$u20$as$u20$core..cmp..PartialOrd$GT$2gt17h25e4be60f085a13bE
	.p2align	4, 0x90
	.type	_ZN46_$LT$char$u20$as$u20$core..cmp..PartialOrd$GT$2gt17h25e4be60f085a13bE,@function
_ZN46_$LT$char$u20$as$u20$core..cmp..PartialOrd$GT$2gt17h25e4be60f085a13bE:
	movl	(%rdi), %eax
	cmpl	(%rsi), %eax
	seta	%al
	retq
.Lfunc_end96:
	.size	_ZN46_$LT$char$u20$as$u20$core..cmp..PartialOrd$GT$2gt17h25e4be60f085a13bE, .Lfunc_end96-_ZN46_$LT$char$u20$as$u20$core..cmp..PartialOrd$GT$2gt17h25e4be60f085a13bE

	.section	".text._ZN39_$LT$char$u20$as$u20$core..cmp..Ord$GT$3cmp17h12747fb375679f0fE","ax",@progbits
	.globl	_ZN39_$LT$char$u20$as$u20$core..cmp..Ord$GT$3cmp17h12747fb375679f0fE
	.p2align	4, 0x90
	.type	_ZN39_$LT$char$u20$as$u20$core..cmp..Ord$GT$3cmp17h12747fb375679f0fE,@function
_ZN39_$LT$char$u20$as$u20$core..cmp..Ord$GT$3cmp17h12747fb375679f0fE:
	movl	(%rdi), %eax
	xorl	%ecx, %ecx
	cmpl	(%rsi), %eax
	setne	%cl
	movl	$255, %eax
	cmovael	%ecx, %eax
	retq
.Lfunc_end97:
	.size	_ZN39_$LT$char$u20$as$u20$core..cmp..Ord$GT$3cmp17h12747fb375679f0fE, .Lfunc_end97-_ZN39_$LT$char$u20$as$u20$core..cmp..Ord$GT$3cmp17h12747fb375679f0fE

	.section	".text._ZN42_$LT$i8$u20$as$u20$core..marker..Clone$GT$5clone17hfc7859c37076c6efE","ax",@progbits
	.globl	_ZN42_$LT$i8$u20$as$u20$core..marker..Clone$GT$5clone17hfc7859c37076c6efE
	.p2align	4, 0x90
	.type	_ZN42_$LT$i8$u20$as$u20$core..marker..Clone$GT$5clone17hfc7859c37076c6efE,@function
_ZN42_$LT$i8$u20$as$u20$core..marker..Clone$GT$5clone17hfc7859c37076c6efE:
	movb	(%rdi), %al
	retq
.Lfunc_end98:
	.size	_ZN42_$LT$i8$u20$as$u20$core..marker..Clone$GT$5clone17hfc7859c37076c6efE, .Lfunc_end98-_ZN42_$LT$i8$u20$as$u20$core..marker..Clone$GT$5clone17hfc7859c37076c6efE

	.section	".text._ZN43_$LT$i16$u20$as$u20$core..marker..Clone$GT$5clone17hb127f1b0f469c1c9E","ax",@progbits
	.globl	_ZN43_$LT$i16$u20$as$u20$core..marker..Clone$GT$5clone17hb127f1b0f469c1c9E
	.p2align	4, 0x90
	.type	_ZN43_$LT$i16$u20$as$u20$core..marker..Clone$GT$5clone17hb127f1b0f469c1c9E,@function
_ZN43_$LT$i16$u20$as$u20$core..marker..Clone$GT$5clone17hb127f1b0f469c1c9E:
	movzwl	(%rdi), %eax
	retq
.Lfunc_end99:
	.size	_ZN43_$LT$i16$u20$as$u20$core..marker..Clone$GT$5clone17hb127f1b0f469c1c9E, .Lfunc_end99-_ZN43_$LT$i16$u20$as$u20$core..marker..Clone$GT$5clone17hb127f1b0f469c1c9E

	.section	".text._ZN43_$LT$i32$u20$as$u20$core..marker..Clone$GT$5clone17h65051a56882c9c8bE","ax",@progbits
	.globl	_ZN43_$LT$i32$u20$as$u20$core..marker..Clone$GT$5clone17h65051a56882c9c8bE
	.p2align	4, 0x90
	.type	_ZN43_$LT$i32$u20$as$u20$core..marker..Clone$GT$5clone17h65051a56882c9c8bE,@function
_ZN43_$LT$i32$u20$as$u20$core..marker..Clone$GT$5clone17h65051a56882c9c8bE:
	movl	(%rdi), %eax
	retq
.Lfunc_end100:
	.size	_ZN43_$LT$i32$u20$as$u20$core..marker..Clone$GT$5clone17h65051a56882c9c8bE, .Lfunc_end100-_ZN43_$LT$i32$u20$as$u20$core..marker..Clone$GT$5clone17h65051a56882c9c8bE

	.section	".text._ZN43_$LT$i64$u20$as$u20$core..marker..Clone$GT$5clone17h3becefb5ac2b2fa5E","ax",@progbits
	.globl	_ZN43_$LT$i64$u20$as$u20$core..marker..Clone$GT$5clone17h3becefb5ac2b2fa5E
	.p2align	4, 0x90
	.type	_ZN43_$LT$i64$u20$as$u20$core..marker..Clone$GT$5clone17h3becefb5ac2b2fa5E,@function
_ZN43_$LT$i64$u20$as$u20$core..marker..Clone$GT$5clone17h3becefb5ac2b2fa5E:
	movq	(%rdi), %rax
	retq
.Lfunc_end101:
	.size	_ZN43_$LT$i64$u20$as$u20$core..marker..Clone$GT$5clone17h3becefb5ac2b2fa5E, .Lfunc_end101-_ZN43_$LT$i64$u20$as$u20$core..marker..Clone$GT$5clone17h3becefb5ac2b2fa5E

	.section	".text._ZN44_$LT$i128$u20$as$u20$core..marker..Clone$GT$5clone17h4e50a70425ef5a84E","ax",@progbits
	.globl	_ZN44_$LT$i128$u20$as$u20$core..marker..Clone$GT$5clone17h4e50a70425ef5a84E
	.p2align	4, 0x90
	.type	_ZN44_$LT$i128$u20$as$u20$core..marker..Clone$GT$5clone17h4e50a70425ef5a84E,@function
_ZN44_$LT$i128$u20$as$u20$core..marker..Clone$GT$5clone17h4e50a70425ef5a84E:
	movq	(%rdi), %rax
	movq	8(%rdi), %rdx
	retq
.Lfunc_end102:
	.size	_ZN44_$LT$i128$u20$as$u20$core..marker..Clone$GT$5clone17h4e50a70425ef5a84E, .Lfunc_end102-_ZN44_$LT$i128$u20$as$u20$core..marker..Clone$GT$5clone17h4e50a70425ef5a84E

	.section	".text._ZN44_$LT$bool$u20$as$u20$core..marker..Clone$GT$5clone17h0475f626b3725babE","ax",@progbits
	.globl	_ZN44_$LT$bool$u20$as$u20$core..marker..Clone$GT$5clone17h0475f626b3725babE
	.p2align	4, 0x90
	.type	_ZN44_$LT$bool$u20$as$u20$core..marker..Clone$GT$5clone17h0475f626b3725babE,@function
_ZN44_$LT$bool$u20$as$u20$core..marker..Clone$GT$5clone17h0475f626b3725babE:
	movb	(%rdi), %al
	retq
.Lfunc_end103:
	.size	_ZN44_$LT$bool$u20$as$u20$core..marker..Clone$GT$5clone17h0475f626b3725babE, .Lfunc_end103-_ZN44_$LT$bool$u20$as$u20$core..marker..Clone$GT$5clone17h0475f626b3725babE

	.section	".text._ZN44_$LT$char$u20$as$u20$core..marker..Clone$GT$5clone17hc12833d3b46c7490E","ax",@progbits
	.globl	_ZN44_$LT$char$u20$as$u20$core..marker..Clone$GT$5clone17hc12833d3b46c7490E
	.p2align	4, 0x90
	.type	_ZN44_$LT$char$u20$as$u20$core..marker..Clone$GT$5clone17hc12833d3b46c7490E,@function
_ZN44_$LT$char$u20$as$u20$core..marker..Clone$GT$5clone17hc12833d3b46c7490E:
	movl	(%rdi), %eax
	retq
.Lfunc_end104:
	.size	_ZN44_$LT$char$u20$as$u20$core..marker..Clone$GT$5clone17hc12833d3b46c7490E, .Lfunc_end104-_ZN44_$LT$char$u20$as$u20$core..marker..Clone$GT$5clone17hc12833d3b46c7490E

	.section	".text._ZN43_$LT$f32$u20$as$u20$core..marker..Clone$GT$5clone17h55110d813a137b56E","ax",@progbits
	.globl	_ZN43_$LT$f32$u20$as$u20$core..marker..Clone$GT$5clone17h55110d813a137b56E
	.p2align	4, 0x90
	.type	_ZN43_$LT$f32$u20$as$u20$core..marker..Clone$GT$5clone17h55110d813a137b56E,@function
_ZN43_$LT$f32$u20$as$u20$core..marker..Clone$GT$5clone17h55110d813a137b56E:
	movl	(%rdi), %eax
	retq
.Lfunc_end105:
	.size	_ZN43_$LT$f32$u20$as$u20$core..marker..Clone$GT$5clone17h55110d813a137b56E, .Lfunc_end105-_ZN43_$LT$f32$u20$as$u20$core..marker..Clone$GT$5clone17h55110d813a137b56E

	.section	".text._ZN43_$LT$f64$u20$as$u20$core..marker..Clone$GT$5clone17h79b4bd513f869950E","ax",@progbits
	.globl	_ZN43_$LT$f64$u20$as$u20$core..marker..Clone$GT$5clone17h79b4bd513f869950E
	.p2align	4, 0x90
	.type	_ZN43_$LT$f64$u20$as$u20$core..marker..Clone$GT$5clone17h79b4bd513f869950E,@function
_ZN43_$LT$f64$u20$as$u20$core..marker..Clone$GT$5clone17h79b4bd513f869950E:
	movq	(%rdi), %rax
	retq
.Lfunc_end106:
	.size	_ZN43_$LT$f64$u20$as$u20$core..marker..Clone$GT$5clone17h79b4bd513f869950E, .Lfunc_end106-_ZN43_$LT$f64$u20$as$u20$core..marker..Clone$GT$5clone17h79b4bd513f869950E

	.section	".text._ZN37_$LT$i8$u20$as$u20$core..ops..Add$GT$3add17h760993ef1e14f468E","ax",@progbits
	.globl	_ZN37_$LT$i8$u20$as$u20$core..ops..Add$GT$3add17h760993ef1e14f468E
	.p2align	4, 0x90
	.type	_ZN37_$LT$i8$u20$as$u20$core..ops..Add$GT$3add17h760993ef1e14f468E,@function
_ZN37_$LT$i8$u20$as$u20$core..ops..Add$GT$3add17h760993ef1e14f468E:
	leal	(%rsi,%rdi), %eax
	retq
.Lfunc_end107:
	.size	_ZN37_$LT$i8$u20$as$u20$core..ops..Add$GT$3add17h760993ef1e14f468E, .Lfunc_end107-_ZN37_$LT$i8$u20$as$u20$core..ops..Add$GT$3add17h760993ef1e14f468E

	.section	".text._ZN41_$LT$$RF$i8$u20$as$u20$core..ops..Add$GT$3add17hcb85bd6a65eb578fE","ax",@progbits
	.globl	_ZN41_$LT$$RF$i8$u20$as$u20$core..ops..Add$GT$3add17hcb85bd6a65eb578fE
	.p2align	4, 0x90
	.type	_ZN41_$LT$$RF$i8$u20$as$u20$core..ops..Add$GT$3add17hcb85bd6a65eb578fE,@function
_ZN41_$LT$$RF$i8$u20$as$u20$core..ops..Add$GT$3add17hcb85bd6a65eb578fE:
	movb	(%rsi), %al
	addb	(%rdi), %al
	retq
.Lfunc_end108:
	.size	_ZN41_$LT$$RF$i8$u20$as$u20$core..ops..Add$GT$3add17hcb85bd6a65eb578fE, .Lfunc_end108-_ZN41_$LT$$RF$i8$u20$as$u20$core..ops..Add$GT$3add17hcb85bd6a65eb578fE

	.section	".text._ZN38_$LT$i16$u20$as$u20$core..ops..Add$GT$3add17hb4979765832e2c68E","ax",@progbits
	.globl	_ZN38_$LT$i16$u20$as$u20$core..ops..Add$GT$3add17hb4979765832e2c68E
	.p2align	4, 0x90
	.type	_ZN38_$LT$i16$u20$as$u20$core..ops..Add$GT$3add17hb4979765832e2c68E,@function
_ZN38_$LT$i16$u20$as$u20$core..ops..Add$GT$3add17hb4979765832e2c68E:
	leal	(%rdi,%rsi), %eax
	retq
.Lfunc_end109:
	.size	_ZN38_$LT$i16$u20$as$u20$core..ops..Add$GT$3add17hb4979765832e2c68E, .Lfunc_end109-_ZN38_$LT$i16$u20$as$u20$core..ops..Add$GT$3add17hb4979765832e2c68E

	.section	".text._ZN42_$LT$$RF$i16$u20$as$u20$core..ops..Add$GT$3add17h49f9ac0a0b1663baE","ax",@progbits
	.globl	_ZN42_$LT$$RF$i16$u20$as$u20$core..ops..Add$GT$3add17h49f9ac0a0b1663baE
	.p2align	4, 0x90
	.type	_ZN42_$LT$$RF$i16$u20$as$u20$core..ops..Add$GT$3add17h49f9ac0a0b1663baE,@function
_ZN42_$LT$$RF$i16$u20$as$u20$core..ops..Add$GT$3add17h49f9ac0a0b1663baE:
	movzwl	(%rsi), %eax
	addw	(%rdi), %ax
	retq
.Lfunc_end110:
	.size	_ZN42_$LT$$RF$i16$u20$as$u20$core..ops..Add$GT$3add17h49f9ac0a0b1663baE, .Lfunc_end110-_ZN42_$LT$$RF$i16$u20$as$u20$core..ops..Add$GT$3add17h49f9ac0a0b1663baE

	.section	".text._ZN38_$LT$i32$u20$as$u20$core..ops..Add$GT$3add17h2c24169c59402d47E","ax",@progbits
	.globl	_ZN38_$LT$i32$u20$as$u20$core..ops..Add$GT$3add17h2c24169c59402d47E
	.p2align	4, 0x90
	.type	_ZN38_$LT$i32$u20$as$u20$core..ops..Add$GT$3add17h2c24169c59402d47E,@function
_ZN38_$LT$i32$u20$as$u20$core..ops..Add$GT$3add17h2c24169c59402d47E:
	leal	(%rdi,%rsi), %eax
	retq
.Lfunc_end111:
	.size	_ZN38_$LT$i32$u20$as$u20$core..ops..Add$GT$3add17h2c24169c59402d47E, .Lfunc_end111-_ZN38_$LT$i32$u20$as$u20$core..ops..Add$GT$3add17h2c24169c59402d47E

	.section	".text._ZN42_$LT$$RF$i32$u20$as$u20$core..ops..Add$GT$3add17h2fe02e7799f2fea9E","ax",@progbits
	.globl	_ZN42_$LT$$RF$i32$u20$as$u20$core..ops..Add$GT$3add17h2fe02e7799f2fea9E
	.p2align	4, 0x90
	.type	_ZN42_$LT$$RF$i32$u20$as$u20$core..ops..Add$GT$3add17h2fe02e7799f2fea9E,@function
_ZN42_$LT$$RF$i32$u20$as$u20$core..ops..Add$GT$3add17h2fe02e7799f2fea9E:
	movl	(%rsi), %eax
	addl	(%rdi), %eax
	retq
.Lfunc_end112:
	.size	_ZN42_$LT$$RF$i32$u20$as$u20$core..ops..Add$GT$3add17h2fe02e7799f2fea9E, .Lfunc_end112-_ZN42_$LT$$RF$i32$u20$as$u20$core..ops..Add$GT$3add17h2fe02e7799f2fea9E

	.section	".text._ZN38_$LT$i64$u20$as$u20$core..ops..Add$GT$3add17h83f1dbb95b1fd1eeE","ax",@progbits
	.globl	_ZN38_$LT$i64$u20$as$u20$core..ops..Add$GT$3add17h83f1dbb95b1fd1eeE
	.p2align	4, 0x90
	.type	_ZN38_$LT$i64$u20$as$u20$core..ops..Add$GT$3add17h83f1dbb95b1fd1eeE,@function
_ZN38_$LT$i64$u20$as$u20$core..ops..Add$GT$3add17h83f1dbb95b1fd1eeE:
	leaq	(%rdi,%rsi), %rax
	retq
.Lfunc_end113:
	.size	_ZN38_$LT$i64$u20$as$u20$core..ops..Add$GT$3add17h83f1dbb95b1fd1eeE, .Lfunc_end113-_ZN38_$LT$i64$u20$as$u20$core..ops..Add$GT$3add17h83f1dbb95b1fd1eeE

	.section	".text._ZN42_$LT$$RF$i64$u20$as$u20$core..ops..Add$GT$3add17h0d8b992eb34ddf26E","ax",@progbits
	.globl	_ZN42_$LT$$RF$i64$u20$as$u20$core..ops..Add$GT$3add17h0d8b992eb34ddf26E
	.p2align	4, 0x90
	.type	_ZN42_$LT$$RF$i64$u20$as$u20$core..ops..Add$GT$3add17h0d8b992eb34ddf26E,@function
_ZN42_$LT$$RF$i64$u20$as$u20$core..ops..Add$GT$3add17h0d8b992eb34ddf26E:
	movq	(%rsi), %rax
	addq	(%rdi), %rax
	retq
.Lfunc_end114:
	.size	_ZN42_$LT$$RF$i64$u20$as$u20$core..ops..Add$GT$3add17h0d8b992eb34ddf26E, .Lfunc_end114-_ZN42_$LT$$RF$i64$u20$as$u20$core..ops..Add$GT$3add17h0d8b992eb34ddf26E

	.section	".text._ZN39_$LT$i128$u20$as$u20$core..ops..Add$GT$3add17h3a82b177e9fce3c0E","ax",@progbits
	.globl	_ZN39_$LT$i128$u20$as$u20$core..ops..Add$GT$3add17h3a82b177e9fce3c0E
	.p2align	4, 0x90
	.type	_ZN39_$LT$i128$u20$as$u20$core..ops..Add$GT$3add17h3a82b177e9fce3c0E,@function
_ZN39_$LT$i128$u20$as$u20$core..ops..Add$GT$3add17h3a82b177e9fce3c0E:
	movq	%rdi, %rax
	addq	%rdx, %rax
	adcq	%rcx, %rsi
	movq	%rsi, %rdx
	retq
.Lfunc_end115:
	.size	_ZN39_$LT$i128$u20$as$u20$core..ops..Add$GT$3add17h3a82b177e9fce3c0E, .Lfunc_end115-_ZN39_$LT$i128$u20$as$u20$core..ops..Add$GT$3add17h3a82b177e9fce3c0E

	.section	".text._ZN43_$LT$$RF$i128$u20$as$u20$core..ops..Add$GT$3add17haf8a4a623b8bd304E","ax",@progbits
	.globl	_ZN43_$LT$$RF$i128$u20$as$u20$core..ops..Add$GT$3add17haf8a4a623b8bd304E
	.p2align	4, 0x90
	.type	_ZN43_$LT$$RF$i128$u20$as$u20$core..ops..Add$GT$3add17haf8a4a623b8bd304E,@function
_ZN43_$LT$$RF$i128$u20$as$u20$core..ops..Add$GT$3add17haf8a4a623b8bd304E:
	movq	(%rsi), %rax
	addq	(%rdi), %rax
	movq	8(%rsi), %rdx
	adcq	8(%rdi), %rdx
	retq
.Lfunc_end116:
	.size	_ZN43_$LT$$RF$i128$u20$as$u20$core..ops..Add$GT$3add17haf8a4a623b8bd304E, .Lfunc_end116-_ZN43_$LT$$RF$i128$u20$as$u20$core..ops..Add$GT$3add17haf8a4a623b8bd304E

	.section	".text._ZN38_$LT$f32$u20$as$u20$core..ops..Add$GT$3add17h99824b58054ab1d7E","ax",@progbits
	.globl	_ZN38_$LT$f32$u20$as$u20$core..ops..Add$GT$3add17h99824b58054ab1d7E
	.p2align	4, 0x90
	.type	_ZN38_$LT$f32$u20$as$u20$core..ops..Add$GT$3add17h99824b58054ab1d7E,@function
_ZN38_$LT$f32$u20$as$u20$core..ops..Add$GT$3add17h99824b58054ab1d7E:
	pushq	%rax
	callq	__addsf3@PLT
	popq	%rcx
	retq
.Lfunc_end117:
	.size	_ZN38_$LT$f32$u20$as$u20$core..ops..Add$GT$3add17h99824b58054ab1d7E, .Lfunc_end117-_ZN38_$LT$f32$u20$as$u20$core..ops..Add$GT$3add17h99824b58054ab1d7E

	.section	".text._ZN42_$LT$$RF$f32$u20$as$u20$core..ops..Add$GT$3add17h6cce4e999b766202E","ax",@progbits
	.globl	_ZN42_$LT$$RF$f32$u20$as$u20$core..ops..Add$GT$3add17h6cce4e999b766202E
	.p2align	4, 0x90
	.type	_ZN42_$LT$$RF$f32$u20$as$u20$core..ops..Add$GT$3add17h6cce4e999b766202E,@function
_ZN42_$LT$$RF$f32$u20$as$u20$core..ops..Add$GT$3add17h6cce4e999b766202E:
	pushq	%rax
	movl	(%rdi), %edi
	movl	(%rsi), %esi
	callq	__addsf3@PLT
	popq	%rcx
	retq
.Lfunc_end118:
	.size	_ZN42_$LT$$RF$f32$u20$as$u20$core..ops..Add$GT$3add17h6cce4e999b766202E, .Lfunc_end118-_ZN42_$LT$$RF$f32$u20$as$u20$core..ops..Add$GT$3add17h6cce4e999b766202E

	.section	".text._ZN38_$LT$f64$u20$as$u20$core..ops..Add$GT$3add17h7a82eedc0e8c1183E","ax",@progbits
	.globl	_ZN38_$LT$f64$u20$as$u20$core..ops..Add$GT$3add17h7a82eedc0e8c1183E
	.p2align	4, 0x90
	.type	_ZN38_$LT$f64$u20$as$u20$core..ops..Add$GT$3add17h7a82eedc0e8c1183E,@function
_ZN38_$LT$f64$u20$as$u20$core..ops..Add$GT$3add17h7a82eedc0e8c1183E:
	pushq	%rax
	callq	__adddf3@PLT
	popq	%rcx
	retq
.Lfunc_end119:
	.size	_ZN38_$LT$f64$u20$as$u20$core..ops..Add$GT$3add17h7a82eedc0e8c1183E, .Lfunc_end119-_ZN38_$LT$f64$u20$as$u20$core..ops..Add$GT$3add17h7a82eedc0e8c1183E

	.section	".text._ZN42_$LT$$RF$f64$u20$as$u20$core..ops..Add$GT$3add17hdce3efa2bc3d2465E","ax",@progbits
	.globl	_ZN42_$LT$$RF$f64$u20$as$u20$core..ops..Add$GT$3add17hdce3efa2bc3d2465E
	.p2align	4, 0x90
	.type	_ZN42_$LT$$RF$f64$u20$as$u20$core..ops..Add$GT$3add17hdce3efa2bc3d2465E,@function
_ZN42_$LT$$RF$f64$u20$as$u20$core..ops..Add$GT$3add17hdce3efa2bc3d2465E:
	pushq	%rax
	movq	(%rdi), %rdi
	movq	(%rsi), %rsi
	callq	__adddf3@PLT
	popq	%rcx
	retq
.Lfunc_end120:
	.size	_ZN42_$LT$$RF$f64$u20$as$u20$core..ops..Add$GT$3add17hdce3efa2bc3d2465E, .Lfunc_end120-_ZN42_$LT$$RF$f64$u20$as$u20$core..ops..Add$GT$3add17hdce3efa2bc3d2465E

	.section	".text._ZN37_$LT$i8$u20$as$u20$core..ops..Sub$GT$3sub17h0e088b09818bf0e5E","ax",@progbits
	.globl	_ZN37_$LT$i8$u20$as$u20$core..ops..Sub$GT$3sub17h0e088b09818bf0e5E
	.p2align	4, 0x90
	.type	_ZN37_$LT$i8$u20$as$u20$core..ops..Sub$GT$3sub17h0e088b09818bf0e5E,@function
_ZN37_$LT$i8$u20$as$u20$core..ops..Sub$GT$3sub17h0e088b09818bf0e5E:
	movl	%edi, %eax
	subb	%sil, %al
	retq
.Lfunc_end121:
	.size	_ZN37_$LT$i8$u20$as$u20$core..ops..Sub$GT$3sub17h0e088b09818bf0e5E, .Lfunc_end121-_ZN37_$LT$i8$u20$as$u20$core..ops..Sub$GT$3sub17h0e088b09818bf0e5E

	.section	".text._ZN41_$LT$$RF$i8$u20$as$u20$core..ops..Sub$GT$3sub17h2abc932e496a71c3E","ax",@progbits
	.globl	_ZN41_$LT$$RF$i8$u20$as$u20$core..ops..Sub$GT$3sub17h2abc932e496a71c3E
	.p2align	4, 0x90
	.type	_ZN41_$LT$$RF$i8$u20$as$u20$core..ops..Sub$GT$3sub17h2abc932e496a71c3E,@function
_ZN41_$LT$$RF$i8$u20$as$u20$core..ops..Sub$GT$3sub17h2abc932e496a71c3E:
	movb	(%rdi), %al
	subb	(%rsi), %al
	retq
.Lfunc_end122:
	.size	_ZN41_$LT$$RF$i8$u20$as$u20$core..ops..Sub$GT$3sub17h2abc932e496a71c3E, .Lfunc_end122-_ZN41_$LT$$RF$i8$u20$as$u20$core..ops..Sub$GT$3sub17h2abc932e496a71c3E

	.section	".text._ZN38_$LT$i16$u20$as$u20$core..ops..Sub$GT$3sub17h6ea3050b03fca32bE","ax",@progbits
	.globl	_ZN38_$LT$i16$u20$as$u20$core..ops..Sub$GT$3sub17h6ea3050b03fca32bE
	.p2align	4, 0x90
	.type	_ZN38_$LT$i16$u20$as$u20$core..ops..Sub$GT$3sub17h6ea3050b03fca32bE,@function
_ZN38_$LT$i16$u20$as$u20$core..ops..Sub$GT$3sub17h6ea3050b03fca32bE:
	movl	%edi, %eax
	subl	%esi, %eax
	retq
.Lfunc_end123:
	.size	_ZN38_$LT$i16$u20$as$u20$core..ops..Sub$GT$3sub17h6ea3050b03fca32bE, .Lfunc_end123-_ZN38_$LT$i16$u20$as$u20$core..ops..Sub$GT$3sub17h6ea3050b03fca32bE

	.section	".text._ZN42_$LT$$RF$i16$u20$as$u20$core..ops..Sub$GT$3sub17h20440f16ba586c78E","ax",@progbits
	.globl	_ZN42_$LT$$RF$i16$u20$as$u20$core..ops..Sub$GT$3sub17h20440f16ba586c78E
	.p2align	4, 0x90
	.type	_ZN42_$LT$$RF$i16$u20$as$u20$core..ops..Sub$GT$3sub17h20440f16ba586c78E,@function
_ZN42_$LT$$RF$i16$u20$as$u20$core..ops..Sub$GT$3sub17h20440f16ba586c78E:
	movzwl	(%rdi), %eax
	subw	(%rsi), %ax
	retq
.Lfunc_end124:
	.size	_ZN42_$LT$$RF$i16$u20$as$u20$core..ops..Sub$GT$3sub17h20440f16ba586c78E, .Lfunc_end124-_ZN42_$LT$$RF$i16$u20$as$u20$core..ops..Sub$GT$3sub17h20440f16ba586c78E

	.section	".text._ZN38_$LT$i32$u20$as$u20$core..ops..Sub$GT$3sub17h6722b638be1085a5E","ax",@progbits
	.globl	_ZN38_$LT$i32$u20$as$u20$core..ops..Sub$GT$3sub17h6722b638be1085a5E
	.p2align	4, 0x90
	.type	_ZN38_$LT$i32$u20$as$u20$core..ops..Sub$GT$3sub17h6722b638be1085a5E,@function
_ZN38_$LT$i32$u20$as$u20$core..ops..Sub$GT$3sub17h6722b638be1085a5E:
	movl	%edi, %eax
	subl	%esi, %eax
	retq
.Lfunc_end125:
	.size	_ZN38_$LT$i32$u20$as$u20$core..ops..Sub$GT$3sub17h6722b638be1085a5E, .Lfunc_end125-_ZN38_$LT$i32$u20$as$u20$core..ops..Sub$GT$3sub17h6722b638be1085a5E

	.section	".text._ZN42_$LT$$RF$i32$u20$as$u20$core..ops..Sub$GT$3sub17had52596de510f3f4E","ax",@progbits
	.globl	_ZN42_$LT$$RF$i32$u20$as$u20$core..ops..Sub$GT$3sub17had52596de510f3f4E
	.p2align	4, 0x90
	.type	_ZN42_$LT$$RF$i32$u20$as$u20$core..ops..Sub$GT$3sub17had52596de510f3f4E,@function
_ZN42_$LT$$RF$i32$u20$as$u20$core..ops..Sub$GT$3sub17had52596de510f3f4E:
	movl	(%rdi), %eax
	subl	(%rsi), %eax
	retq
.Lfunc_end126:
	.size	_ZN42_$LT$$RF$i32$u20$as$u20$core..ops..Sub$GT$3sub17had52596de510f3f4E, .Lfunc_end126-_ZN42_$LT$$RF$i32$u20$as$u20$core..ops..Sub$GT$3sub17had52596de510f3f4E

	.section	".text._ZN38_$LT$i64$u20$as$u20$core..ops..Sub$GT$3sub17hcacee6445fa027abE","ax",@progbits
	.globl	_ZN38_$LT$i64$u20$as$u20$core..ops..Sub$GT$3sub17hcacee6445fa027abE
	.p2align	4, 0x90
	.type	_ZN38_$LT$i64$u20$as$u20$core..ops..Sub$GT$3sub17hcacee6445fa027abE,@function
_ZN38_$LT$i64$u20$as$u20$core..ops..Sub$GT$3sub17hcacee6445fa027abE:
	movq	%rdi, %rax
	subq	%rsi, %rax
	retq
.Lfunc_end127:
	.size	_ZN38_$LT$i64$u20$as$u20$core..ops..Sub$GT$3sub17hcacee6445fa027abE, .Lfunc_end127-_ZN38_$LT$i64$u20$as$u20$core..ops..Sub$GT$3sub17hcacee6445fa027abE

	.section	".text._ZN42_$LT$$RF$i64$u20$as$u20$core..ops..Sub$GT$3sub17h34177e74edc1fa04E","ax",@progbits
	.globl	_ZN42_$LT$$RF$i64$u20$as$u20$core..ops..Sub$GT$3sub17h34177e74edc1fa04E
	.p2align	4, 0x90
	.type	_ZN42_$LT$$RF$i64$u20$as$u20$core..ops..Sub$GT$3sub17h34177e74edc1fa04E,@function
_ZN42_$LT$$RF$i64$u20$as$u20$core..ops..Sub$GT$3sub17h34177e74edc1fa04E:
	movq	(%rdi), %rax
	subq	(%rsi), %rax
	retq
.Lfunc_end128:
	.size	_ZN42_$LT$$RF$i64$u20$as$u20$core..ops..Sub$GT$3sub17h34177e74edc1fa04E, .Lfunc_end128-_ZN42_$LT$$RF$i64$u20$as$u20$core..ops..Sub$GT$3sub17h34177e74edc1fa04E

	.section	".text._ZN39_$LT$i128$u20$as$u20$core..ops..Sub$GT$3sub17h6efa8c56d447323dE","ax",@progbits
	.globl	_ZN39_$LT$i128$u20$as$u20$core..ops..Sub$GT$3sub17h6efa8c56d447323dE
	.p2align	4, 0x90
	.type	_ZN39_$LT$i128$u20$as$u20$core..ops..Sub$GT$3sub17h6efa8c56d447323dE,@function
_ZN39_$LT$i128$u20$as$u20$core..ops..Sub$GT$3sub17h6efa8c56d447323dE:
	movq	%rdi, %rax
	subq	%rdx, %rax
	sbbq	%rcx, %rsi
	movq	%rsi, %rdx
	retq
.Lfunc_end129:
	.size	_ZN39_$LT$i128$u20$as$u20$core..ops..Sub$GT$3sub17h6efa8c56d447323dE, .Lfunc_end129-_ZN39_$LT$i128$u20$as$u20$core..ops..Sub$GT$3sub17h6efa8c56d447323dE

	.section	".text._ZN43_$LT$$RF$i128$u20$as$u20$core..ops..Sub$GT$3sub17hf04fe78761586f2eE","ax",@progbits
	.globl	_ZN43_$LT$$RF$i128$u20$as$u20$core..ops..Sub$GT$3sub17hf04fe78761586f2eE
	.p2align	4, 0x90
	.type	_ZN43_$LT$$RF$i128$u20$as$u20$core..ops..Sub$GT$3sub17hf04fe78761586f2eE,@function
_ZN43_$LT$$RF$i128$u20$as$u20$core..ops..Sub$GT$3sub17hf04fe78761586f2eE:
	movq	(%rdi), %rax
	subq	(%rsi), %rax
	movq	8(%rdi), %rdx
	sbbq	8(%rsi), %rdx
	retq
.Lfunc_end130:
	.size	_ZN43_$LT$$RF$i128$u20$as$u20$core..ops..Sub$GT$3sub17hf04fe78761586f2eE, .Lfunc_end130-_ZN43_$LT$$RF$i128$u20$as$u20$core..ops..Sub$GT$3sub17hf04fe78761586f2eE

	.section	".text._ZN38_$LT$f32$u20$as$u20$core..ops..Sub$GT$3sub17h35737b244c337557E","ax",@progbits
	.globl	_ZN38_$LT$f32$u20$as$u20$core..ops..Sub$GT$3sub17h35737b244c337557E
	.p2align	4, 0x90
	.type	_ZN38_$LT$f32$u20$as$u20$core..ops..Sub$GT$3sub17h35737b244c337557E,@function
_ZN38_$LT$f32$u20$as$u20$core..ops..Sub$GT$3sub17h35737b244c337557E:
	pushq	%rax
	callq	__subsf3@PLT
	popq	%rcx
	retq
.Lfunc_end131:
	.size	_ZN38_$LT$f32$u20$as$u20$core..ops..Sub$GT$3sub17h35737b244c337557E, .Lfunc_end131-_ZN38_$LT$f32$u20$as$u20$core..ops..Sub$GT$3sub17h35737b244c337557E

	.section	".text._ZN42_$LT$$RF$f32$u20$as$u20$core..ops..Sub$GT$3sub17hc6a35ca8c2d9b16eE","ax",@progbits
	.globl	_ZN42_$LT$$RF$f32$u20$as$u20$core..ops..Sub$GT$3sub17hc6a35ca8c2d9b16eE
	.p2align	4, 0x90
	.type	_ZN42_$LT$$RF$f32$u20$as$u20$core..ops..Sub$GT$3sub17hc6a35ca8c2d9b16eE,@function
_ZN42_$LT$$RF$f32$u20$as$u20$core..ops..Sub$GT$3sub17hc6a35ca8c2d9b16eE:
	pushq	%rax
	movl	(%rdi), %edi
	movl	(%rsi), %esi
	callq	__subsf3@PLT
	popq	%rcx
	retq
.Lfunc_end132:
	.size	_ZN42_$LT$$RF$f32$u20$as$u20$core..ops..Sub$GT$3sub17hc6a35ca8c2d9b16eE, .Lfunc_end132-_ZN42_$LT$$RF$f32$u20$as$u20$core..ops..Sub$GT$3sub17hc6a35ca8c2d9b16eE

	.section	".text._ZN38_$LT$f64$u20$as$u20$core..ops..Sub$GT$3sub17h6bbe4d9b4f8429ffE","ax",@progbits
	.globl	_ZN38_$LT$f64$u20$as$u20$core..ops..Sub$GT$3sub17h6bbe4d9b4f8429ffE
	.p2align	4, 0x90
	.type	_ZN38_$LT$f64$u20$as$u20$core..ops..Sub$GT$3sub17h6bbe4d9b4f8429ffE,@function
_ZN38_$LT$f64$u20$as$u20$core..ops..Sub$GT$3sub17h6bbe4d9b4f8429ffE:
	pushq	%rax
	callq	__subdf3@PLT
	popq	%rcx
	retq
.Lfunc_end133:
	.size	_ZN38_$LT$f64$u20$as$u20$core..ops..Sub$GT$3sub17h6bbe4d9b4f8429ffE, .Lfunc_end133-_ZN38_$LT$f64$u20$as$u20$core..ops..Sub$GT$3sub17h6bbe4d9b4f8429ffE

	.section	".text._ZN42_$LT$$RF$f64$u20$as$u20$core..ops..Sub$GT$3sub17h0758998b3cdff641E","ax",@progbits
	.globl	_ZN42_$LT$$RF$f64$u20$as$u20$core..ops..Sub$GT$3sub17h0758998b3cdff641E
	.p2align	4, 0x90
	.type	_ZN42_$LT$$RF$f64$u20$as$u20$core..ops..Sub$GT$3sub17h0758998b3cdff641E,@function
_ZN42_$LT$$RF$f64$u20$as$u20$core..ops..Sub$GT$3sub17h0758998b3cdff641E:
	pushq	%rax
	movq	(%rdi), %rdi
	movq	(%rsi), %rsi
	callq	__subdf3@PLT
	popq	%rcx
	retq
.Lfunc_end134:
	.size	_ZN42_$LT$$RF$f64$u20$as$u20$core..ops..Sub$GT$3sub17h0758998b3cdff641E, .Lfunc_end134-_ZN42_$LT$$RF$f64$u20$as$u20$core..ops..Sub$GT$3sub17h0758998b3cdff641E

	.section	".text._ZN37_$LT$i8$u20$as$u20$core..ops..Mul$GT$3mul17h1627d654f3df1a17E","ax",@progbits
	.globl	_ZN37_$LT$i8$u20$as$u20$core..ops..Mul$GT$3mul17h1627d654f3df1a17E
	.p2align	4, 0x90
	.type	_ZN37_$LT$i8$u20$as$u20$core..ops..Mul$GT$3mul17h1627d654f3df1a17E,@function
_ZN37_$LT$i8$u20$as$u20$core..ops..Mul$GT$3mul17h1627d654f3df1a17E:
	movl	%esi, %eax
	mulb	%dil
	retq
.Lfunc_end135:
	.size	_ZN37_$LT$i8$u20$as$u20$core..ops..Mul$GT$3mul17h1627d654f3df1a17E, .Lfunc_end135-_ZN37_$LT$i8$u20$as$u20$core..ops..Mul$GT$3mul17h1627d654f3df1a17E

	.section	".text._ZN41_$LT$$RF$i8$u20$as$u20$core..ops..Mul$GT$3mul17h7fd02529d1e21958E","ax",@progbits
	.globl	_ZN41_$LT$$RF$i8$u20$as$u20$core..ops..Mul$GT$3mul17h7fd02529d1e21958E
	.p2align	4, 0x90
	.type	_ZN41_$LT$$RF$i8$u20$as$u20$core..ops..Mul$GT$3mul17h7fd02529d1e21958E,@function
_ZN41_$LT$$RF$i8$u20$as$u20$core..ops..Mul$GT$3mul17h7fd02529d1e21958E:
	movb	(%rsi), %al
	mulb	(%rdi)
	retq
.Lfunc_end136:
	.size	_ZN41_$LT$$RF$i8$u20$as$u20$core..ops..Mul$GT$3mul17h7fd02529d1e21958E, .Lfunc_end136-_ZN41_$LT$$RF$i8$u20$as$u20$core..ops..Mul$GT$3mul17h7fd02529d1e21958E

	.section	".text._ZN38_$LT$i16$u20$as$u20$core..ops..Mul$GT$3mul17h7301c16299193182E","ax",@progbits
	.globl	_ZN38_$LT$i16$u20$as$u20$core..ops..Mul$GT$3mul17h7301c16299193182E
	.p2align	4, 0x90
	.type	_ZN38_$LT$i16$u20$as$u20$core..ops..Mul$GT$3mul17h7301c16299193182E,@function
_ZN38_$LT$i16$u20$as$u20$core..ops..Mul$GT$3mul17h7301c16299193182E:
	movl	%edi, %eax
	imull	%esi, %eax
	retq
.Lfunc_end137:
	.size	_ZN38_$LT$i16$u20$as$u20$core..ops..Mul$GT$3mul17h7301c16299193182E, .Lfunc_end137-_ZN38_$LT$i16$u20$as$u20$core..ops..Mul$GT$3mul17h7301c16299193182E

	.section	".text._ZN42_$LT$$RF$i16$u20$as$u20$core..ops..Mul$GT$3mul17h0db03beb3be8a40fE","ax",@progbits
	.globl	_ZN42_$LT$$RF$i16$u20$as$u20$core..ops..Mul$GT$3mul17h0db03beb3be8a40fE
	.p2align	4, 0x90
	.type	_ZN42_$LT$$RF$i16$u20$as$u20$core..ops..Mul$GT$3mul17h0db03beb3be8a40fE,@function
_ZN42_$LT$$RF$i16$u20$as$u20$core..ops..Mul$GT$3mul17h0db03beb3be8a40fE:
	movzwl	(%rsi), %eax
	imulw	(%rdi), %ax
	retq
.Lfunc_end138:
	.size	_ZN42_$LT$$RF$i16$u20$as$u20$core..ops..Mul$GT$3mul17h0db03beb3be8a40fE, .Lfunc_end138-_ZN42_$LT$$RF$i16$u20$as$u20$core..ops..Mul$GT$3mul17h0db03beb3be8a40fE

	.section	".text._ZN38_$LT$i32$u20$as$u20$core..ops..Mul$GT$3mul17h3274af1a78e9414cE","ax",@progbits
	.globl	_ZN38_$LT$i32$u20$as$u20$core..ops..Mul$GT$3mul17h3274af1a78e9414cE
	.p2align	4, 0x90
	.type	_ZN38_$LT$i32$u20$as$u20$core..ops..Mul$GT$3mul17h3274af1a78e9414cE,@function
_ZN38_$LT$i32$u20$as$u20$core..ops..Mul$GT$3mul17h3274af1a78e9414cE:
	movl	%edi, %eax
	imull	%esi, %eax
	retq
.Lfunc_end139:
	.size	_ZN38_$LT$i32$u20$as$u20$core..ops..Mul$GT$3mul17h3274af1a78e9414cE, .Lfunc_end139-_ZN38_$LT$i32$u20$as$u20$core..ops..Mul$GT$3mul17h3274af1a78e9414cE

	.section	".text._ZN42_$LT$$RF$i32$u20$as$u20$core..ops..Mul$GT$3mul17hed952c558492460fE","ax",@progbits
	.globl	_ZN42_$LT$$RF$i32$u20$as$u20$core..ops..Mul$GT$3mul17hed952c558492460fE
	.p2align	4, 0x90
	.type	_ZN42_$LT$$RF$i32$u20$as$u20$core..ops..Mul$GT$3mul17hed952c558492460fE,@function
_ZN42_$LT$$RF$i32$u20$as$u20$core..ops..Mul$GT$3mul17hed952c558492460fE:
	movl	(%rsi), %eax
	imull	(%rdi), %eax
	retq
.Lfunc_end140:
	.size	_ZN42_$LT$$RF$i32$u20$as$u20$core..ops..Mul$GT$3mul17hed952c558492460fE, .Lfunc_end140-_ZN42_$LT$$RF$i32$u20$as$u20$core..ops..Mul$GT$3mul17hed952c558492460fE

	.section	".text._ZN38_$LT$i64$u20$as$u20$core..ops..Mul$GT$3mul17hacc65c31b697cf97E","ax",@progbits
	.globl	_ZN38_$LT$i64$u20$as$u20$core..ops..Mul$GT$3mul17hacc65c31b697cf97E
	.p2align	4, 0x90
	.type	_ZN38_$LT$i64$u20$as$u20$core..ops..Mul$GT$3mul17hacc65c31b697cf97E,@function
_ZN38_$LT$i64$u20$as$u20$core..ops..Mul$GT$3mul17hacc65c31b697cf97E:
	movq	%rdi, %rax
	imulq	%rsi, %rax
	retq
.Lfunc_end141:
	.size	_ZN38_$LT$i64$u20$as$u20$core..ops..Mul$GT$3mul17hacc65c31b697cf97E, .Lfunc_end141-_ZN38_$LT$i64$u20$as$u20$core..ops..Mul$GT$3mul17hacc65c31b697cf97E

	.section	".text._ZN42_$LT$$RF$i64$u20$as$u20$core..ops..Mul$GT$3mul17h52e63173700a6c29E","ax",@progbits
	.globl	_ZN42_$LT$$RF$i64$u20$as$u20$core..ops..Mul$GT$3mul17h52e63173700a6c29E
	.p2align	4, 0x90
	.type	_ZN42_$LT$$RF$i64$u20$as$u20$core..ops..Mul$GT$3mul17h52e63173700a6c29E,@function
_ZN42_$LT$$RF$i64$u20$as$u20$core..ops..Mul$GT$3mul17h52e63173700a6c29E:
	movq	(%rsi), %rax
	imulq	(%rdi), %rax
	retq
.Lfunc_end142:
	.size	_ZN42_$LT$$RF$i64$u20$as$u20$core..ops..Mul$GT$3mul17h52e63173700a6c29E, .Lfunc_end142-_ZN42_$LT$$RF$i64$u20$as$u20$core..ops..Mul$GT$3mul17h52e63173700a6c29E

	.section	".text._ZN39_$LT$i128$u20$as$u20$core..ops..Mul$GT$3mul17h8e91451548ad13acE","ax",@progbits
	.globl	_ZN39_$LT$i128$u20$as$u20$core..ops..Mul$GT$3mul17h8e91451548ad13acE
	.p2align	4, 0x90
	.type	_ZN39_$LT$i128$u20$as$u20$core..ops..Mul$GT$3mul17h8e91451548ad13acE,@function
_ZN39_$LT$i128$u20$as$u20$core..ops..Mul$GT$3mul17h8e91451548ad13acE:
	movq	%rdx, %r8
	movq	%rdx, %rax
	mulq	%rdi
	imulq	%r8, %rsi
	addq	%rsi, %rdx
	imulq	%rdi, %rcx
	addq	%rcx, %rdx
	retq
.Lfunc_end143:
	.size	_ZN39_$LT$i128$u20$as$u20$core..ops..Mul$GT$3mul17h8e91451548ad13acE, .Lfunc_end143-_ZN39_$LT$i128$u20$as$u20$core..ops..Mul$GT$3mul17h8e91451548ad13acE

	.section	".text._ZN43_$LT$$RF$i128$u20$as$u20$core..ops..Mul$GT$3mul17h0dd15046dea98f90E","ax",@progbits
	.globl	_ZN43_$LT$$RF$i128$u20$as$u20$core..ops..Mul$GT$3mul17h0dd15046dea98f90E
	.p2align	4, 0x90
	.type	_ZN43_$LT$$RF$i128$u20$as$u20$core..ops..Mul$GT$3mul17h0dd15046dea98f90E,@function
_ZN43_$LT$$RF$i128$u20$as$u20$core..ops..Mul$GT$3mul17h0dd15046dea98f90E:
	movq	(%rdi), %rcx
	movq	(%rsi), %rax
	movq	8(%rdi), %rdi
	imulq	%rax, %rdi
	mulq	%rcx
	addq	%rdi, %rdx
	imulq	8(%rsi), %rcx
	addq	%rcx, %rdx
	retq
.Lfunc_end144:
	.size	_ZN43_$LT$$RF$i128$u20$as$u20$core..ops..Mul$GT$3mul17h0dd15046dea98f90E, .Lfunc_end144-_ZN43_$LT$$RF$i128$u20$as$u20$core..ops..Mul$GT$3mul17h0dd15046dea98f90E

	.section	".text._ZN38_$LT$f32$u20$as$u20$core..ops..Mul$GT$3mul17h9df5a7dd1c2ca0e8E","ax",@progbits
	.globl	_ZN38_$LT$f32$u20$as$u20$core..ops..Mul$GT$3mul17h9df5a7dd1c2ca0e8E
	.p2align	4, 0x90
	.type	_ZN38_$LT$f32$u20$as$u20$core..ops..Mul$GT$3mul17h9df5a7dd1c2ca0e8E,@function
_ZN38_$LT$f32$u20$as$u20$core..ops..Mul$GT$3mul17h9df5a7dd1c2ca0e8E:
	pushq	%rax
	callq	__mulsf3@PLT
	popq	%rcx
	retq
.Lfunc_end145:
	.size	_ZN38_$LT$f32$u20$as$u20$core..ops..Mul$GT$3mul17h9df5a7dd1c2ca0e8E, .Lfunc_end145-_ZN38_$LT$f32$u20$as$u20$core..ops..Mul$GT$3mul17h9df5a7dd1c2ca0e8E

	.section	".text._ZN42_$LT$$RF$f32$u20$as$u20$core..ops..Mul$GT$3mul17h8621e1df9f54d483E","ax",@progbits
	.globl	_ZN42_$LT$$RF$f32$u20$as$u20$core..ops..Mul$GT$3mul17h8621e1df9f54d483E
	.p2align	4, 0x90
	.type	_ZN42_$LT$$RF$f32$u20$as$u20$core..ops..Mul$GT$3mul17h8621e1df9f54d483E,@function
_ZN42_$LT$$RF$f32$u20$as$u20$core..ops..Mul$GT$3mul17h8621e1df9f54d483E:
	pushq	%rax
	movl	(%rdi), %edi
	movl	(%rsi), %esi
	callq	__mulsf3@PLT
	popq	%rcx
	retq
.Lfunc_end146:
	.size	_ZN42_$LT$$RF$f32$u20$as$u20$core..ops..Mul$GT$3mul17h8621e1df9f54d483E, .Lfunc_end146-_ZN42_$LT$$RF$f32$u20$as$u20$core..ops..Mul$GT$3mul17h8621e1df9f54d483E

	.section	".text._ZN38_$LT$f64$u20$as$u20$core..ops..Mul$GT$3mul17h5dadae6af8035d57E","ax",@progbits
	.globl	_ZN38_$LT$f64$u20$as$u20$core..ops..Mul$GT$3mul17h5dadae6af8035d57E
	.p2align	4, 0x90
	.type	_ZN38_$LT$f64$u20$as$u20$core..ops..Mul$GT$3mul17h5dadae6af8035d57E,@function
_ZN38_$LT$f64$u20$as$u20$core..ops..Mul$GT$3mul17h5dadae6af8035d57E:
	pushq	%rax
	callq	__muldf3@PLT
	popq	%rcx
	retq
.Lfunc_end147:
	.size	_ZN38_$LT$f64$u20$as$u20$core..ops..Mul$GT$3mul17h5dadae6af8035d57E, .Lfunc_end147-_ZN38_$LT$f64$u20$as$u20$core..ops..Mul$GT$3mul17h5dadae6af8035d57E

	.section	".text._ZN42_$LT$$RF$f64$u20$as$u20$core..ops..Mul$GT$3mul17h803cd0a9194f34e9E","ax",@progbits
	.globl	_ZN42_$LT$$RF$f64$u20$as$u20$core..ops..Mul$GT$3mul17h803cd0a9194f34e9E
	.p2align	4, 0x90
	.type	_ZN42_$LT$$RF$f64$u20$as$u20$core..ops..Mul$GT$3mul17h803cd0a9194f34e9E,@function
_ZN42_$LT$$RF$f64$u20$as$u20$core..ops..Mul$GT$3mul17h803cd0a9194f34e9E:
	pushq	%rax
	movq	(%rdi), %rdi
	movq	(%rsi), %rsi
	callq	__muldf3@PLT
	popq	%rcx
	retq
.Lfunc_end148:
	.size	_ZN42_$LT$$RF$f64$u20$as$u20$core..ops..Mul$GT$3mul17h803cd0a9194f34e9E, .Lfunc_end148-_ZN42_$LT$$RF$f64$u20$as$u20$core..ops..Mul$GT$3mul17h803cd0a9194f34e9E

	.section	".text._ZN37_$LT$u8$u20$as$u20$core..ops..Div$GT$3div17h4b8ad25e7f574ba6E","ax",@progbits
	.globl	_ZN37_$LT$u8$u20$as$u20$core..ops..Div$GT$3div17h4b8ad25e7f574ba6E
	.p2align	4, 0x90
	.type	_ZN37_$LT$u8$u20$as$u20$core..ops..Div$GT$3div17h4b8ad25e7f574ba6E,@function
_ZN37_$LT$u8$u20$as$u20$core..ops..Div$GT$3div17h4b8ad25e7f574ba6E:
	testb	%sil, %sil
	je	.LBB149_2
	movzbl	%dil, %eax
	divb	%sil
	retq
.LBB149_2:
	pushq	%rax
	leaq	str.0(%rip), %rdi
	leaq	.L__unnamed_5(%rip), %rdx
	movl	$25, %esi
	callq	_ZN4core5panic5panic17h6dbea6e1214c1483E@PLT
	ud2
.Lfunc_end149:
	.size	_ZN37_$LT$u8$u20$as$u20$core..ops..Div$GT$3div17h4b8ad25e7f574ba6E, .Lfunc_end149-_ZN37_$LT$u8$u20$as$u20$core..ops..Div$GT$3div17h4b8ad25e7f574ba6E

	.section	".text._ZN41_$LT$$RF$u8$u20$as$u20$core..ops..Div$GT$3div17h26e0d56c3b1e1684E","ax",@progbits
	.globl	_ZN41_$LT$$RF$u8$u20$as$u20$core..ops..Div$GT$3div17h26e0d56c3b1e1684E
	.p2align	4, 0x90
	.type	_ZN41_$LT$$RF$u8$u20$as$u20$core..ops..Div$GT$3div17h26e0d56c3b1e1684E,@function
_ZN41_$LT$$RF$u8$u20$as$u20$core..ops..Div$GT$3div17h26e0d56c3b1e1684E:
	pushq	%rax
	movb	(%rsi), %cl
	testb	%cl, %cl
	je	.LBB150_2
	movzbl	(%rdi), %eax
	divb	%cl
	popq	%rcx
	retq
.LBB150_2:
	leaq	str.0(%rip), %rdi
	leaq	.L__unnamed_5(%rip), %rdx
	movl	$25, %esi
	callq	_ZN4core5panic5panic17h6dbea6e1214c1483E@PLT
	ud2
.Lfunc_end150:
	.size	_ZN41_$LT$$RF$u8$u20$as$u20$core..ops..Div$GT$3div17h26e0d56c3b1e1684E, .Lfunc_end150-_ZN41_$LT$$RF$u8$u20$as$u20$core..ops..Div$GT$3div17h26e0d56c3b1e1684E

	.section	".text._ZN38_$LT$u16$u20$as$u20$core..ops..Div$GT$3div17ha2b1d581975ae12aE","ax",@progbits
	.globl	_ZN38_$LT$u16$u20$as$u20$core..ops..Div$GT$3div17ha2b1d581975ae12aE
	.p2align	4, 0x90
	.type	_ZN38_$LT$u16$u20$as$u20$core..ops..Div$GT$3div17ha2b1d581975ae12aE,@function
_ZN38_$LT$u16$u20$as$u20$core..ops..Div$GT$3div17ha2b1d581975ae12aE:
	testw	%si, %si
	je	.LBB151_2
	movl	%edi, %eax
	xorl	%edx, %edx
	divw	%si
	retq
.LBB151_2:
	pushq	%rax
	leaq	str.0(%rip), %rdi
	leaq	.L__unnamed_5(%rip), %rdx
	movl	$25, %esi
	callq	_ZN4core5panic5panic17h6dbea6e1214c1483E@PLT
	ud2
.Lfunc_end151:
	.size	_ZN38_$LT$u16$u20$as$u20$core..ops..Div$GT$3div17ha2b1d581975ae12aE, .Lfunc_end151-_ZN38_$LT$u16$u20$as$u20$core..ops..Div$GT$3div17ha2b1d581975ae12aE

	.section	".text._ZN42_$LT$$RF$u16$u20$as$u20$core..ops..Div$GT$3div17h511baff70c5339beE","ax",@progbits
	.globl	_ZN42_$LT$$RF$u16$u20$as$u20$core..ops..Div$GT$3div17h511baff70c5339beE
	.p2align	4, 0x90
	.type	_ZN42_$LT$$RF$u16$u20$as$u20$core..ops..Div$GT$3div17h511baff70c5339beE,@function
_ZN42_$LT$$RF$u16$u20$as$u20$core..ops..Div$GT$3div17h511baff70c5339beE:
	pushq	%rax
	movzwl	(%rsi), %ecx
	testw	%cx, %cx
	je	.LBB152_2
	movzwl	(%rdi), %eax
	xorl	%edx, %edx
	divw	%cx
	popq	%rcx
	retq
.LBB152_2:
	leaq	str.0(%rip), %rdi
	leaq	.L__unnamed_5(%rip), %rdx
	movl	$25, %esi
	callq	_ZN4core5panic5panic17h6dbea6e1214c1483E@PLT
	ud2
.Lfunc_end152:
	.size	_ZN42_$LT$$RF$u16$u20$as$u20$core..ops..Div$GT$3div17h511baff70c5339beE, .Lfunc_end152-_ZN42_$LT$$RF$u16$u20$as$u20$core..ops..Div$GT$3div17h511baff70c5339beE

	.section	".text._ZN38_$LT$u32$u20$as$u20$core..ops..Div$GT$3div17h903f2b591cfcb801E","ax",@progbits
	.globl	_ZN38_$LT$u32$u20$as$u20$core..ops..Div$GT$3div17h903f2b591cfcb801E
	.p2align	4, 0x90
	.type	_ZN38_$LT$u32$u20$as$u20$core..ops..Div$GT$3div17h903f2b591cfcb801E,@function
_ZN38_$LT$u32$u20$as$u20$core..ops..Div$GT$3div17h903f2b591cfcb801E:
	testl	%esi, %esi
	je	.LBB153_2
	movl	%edi, %eax
	xorl	%edx, %edx
	divl	%esi
	retq
.LBB153_2:
	pushq	%rax
	leaq	str.0(%rip), %rdi
	leaq	.L__unnamed_5(%rip), %rdx
	movl	$25, %esi
	callq	_ZN4core5panic5panic17h6dbea6e1214c1483E@PLT
	ud2
.Lfunc_end153:
	.size	_ZN38_$LT$u32$u20$as$u20$core..ops..Div$GT$3div17h903f2b591cfcb801E, .Lfunc_end153-_ZN38_$LT$u32$u20$as$u20$core..ops..Div$GT$3div17h903f2b591cfcb801E

	.section	".text._ZN42_$LT$$RF$u32$u20$as$u20$core..ops..Div$GT$3div17h91ab7b352dce5c68E","ax",@progbits
	.globl	_ZN42_$LT$$RF$u32$u20$as$u20$core..ops..Div$GT$3div17h91ab7b352dce5c68E
	.p2align	4, 0x90
	.type	_ZN42_$LT$$RF$u32$u20$as$u20$core..ops..Div$GT$3div17h91ab7b352dce5c68E,@function
_ZN42_$LT$$RF$u32$u20$as$u20$core..ops..Div$GT$3div17h91ab7b352dce5c68E:
	pushq	%rax
	movl	(%rsi), %ecx
	testl	%ecx, %ecx
	je	.LBB154_2
	movl	(%rdi), %eax
	xorl	%edx, %edx
	divl	%ecx
	popq	%rcx
	retq
.LBB154_2:
	leaq	str.0(%rip), %rdi
	leaq	.L__unnamed_5(%rip), %rdx
	movl	$25, %esi
	callq	_ZN4core5panic5panic17h6dbea6e1214c1483E@PLT
	ud2
.Lfunc_end154:
	.size	_ZN42_$LT$$RF$u32$u20$as$u20$core..ops..Div$GT$3div17h91ab7b352dce5c68E, .Lfunc_end154-_ZN42_$LT$$RF$u32$u20$as$u20$core..ops..Div$GT$3div17h91ab7b352dce5c68E

	.section	".text._ZN38_$LT$u64$u20$as$u20$core..ops..Div$GT$3div17h27bf0c7e6859a59fE","ax",@progbits
	.globl	_ZN38_$LT$u64$u20$as$u20$core..ops..Div$GT$3div17h27bf0c7e6859a59fE
	.p2align	4, 0x90
	.type	_ZN38_$LT$u64$u20$as$u20$core..ops..Div$GT$3div17h27bf0c7e6859a59fE,@function
_ZN38_$LT$u64$u20$as$u20$core..ops..Div$GT$3div17h27bf0c7e6859a59fE:
	testq	%rsi, %rsi
	je	.LBB155_5
	movq	%rdi, %rax
	orq	%rsi, %rax
	shrq	$32, %rax
	je	.LBB155_2
	movq	%rdi, %rax
	xorl	%edx, %edx
	divq	%rsi
	retq
.LBB155_2:
	movl	%edi, %eax
	xorl	%edx, %edx
	divl	%esi
	retq
.LBB155_5:
	pushq	%rax
	leaq	str.0(%rip), %rdi
	leaq	.L__unnamed_5(%rip), %rdx
	movl	$25, %esi
	callq	_ZN4core5panic5panic17h6dbea6e1214c1483E@PLT
	ud2
.Lfunc_end155:
	.size	_ZN38_$LT$u64$u20$as$u20$core..ops..Div$GT$3div17h27bf0c7e6859a59fE, .Lfunc_end155-_ZN38_$LT$u64$u20$as$u20$core..ops..Div$GT$3div17h27bf0c7e6859a59fE

	.section	".text._ZN42_$LT$$RF$u64$u20$as$u20$core..ops..Div$GT$3div17hf832181e95a0f87aE","ax",@progbits
	.globl	_ZN42_$LT$$RF$u64$u20$as$u20$core..ops..Div$GT$3div17hf832181e95a0f87aE
	.p2align	4, 0x90
	.type	_ZN42_$LT$$RF$u64$u20$as$u20$core..ops..Div$GT$3div17hf832181e95a0f87aE,@function
_ZN42_$LT$$RF$u64$u20$as$u20$core..ops..Div$GT$3div17hf832181e95a0f87aE:
	pushq	%rax
	movq	(%rsi), %rcx
	testq	%rcx, %rcx
	je	.LBB156_5
	movq	(%rdi), %rax
	movq	%rax, %rdx
	orq	%rcx, %rdx
	shrq	$32, %rdx
	je	.LBB156_2
	xorl	%edx, %edx
	divq	%rcx
	popq	%rcx
	retq
.LBB156_2:
	xorl	%edx, %edx
	divl	%ecx
	popq	%rcx
	retq
.LBB156_5:
	leaq	str.0(%rip), %rdi
	leaq	.L__unnamed_5(%rip), %rdx
	movl	$25, %esi
	callq	_ZN4core5panic5panic17h6dbea6e1214c1483E@PLT
	ud2
.Lfunc_end156:
	.size	_ZN42_$LT$$RF$u64$u20$as$u20$core..ops..Div$GT$3div17hf832181e95a0f87aE, .Lfunc_end156-_ZN42_$LT$$RF$u64$u20$as$u20$core..ops..Div$GT$3div17hf832181e95a0f87aE

	.section	".text._ZN39_$LT$u128$u20$as$u20$core..ops..Div$GT$3div17h32cd5c1f231186abE","ax",@progbits
	.globl	_ZN39_$LT$u128$u20$as$u20$core..ops..Div$GT$3div17h32cd5c1f231186abE
	.p2align	4, 0x90
	.type	_ZN39_$LT$u128$u20$as$u20$core..ops..Div$GT$3div17h32cd5c1f231186abE,@function
_ZN39_$LT$u128$u20$as$u20$core..ops..Div$GT$3div17h32cd5c1f231186abE:
	pushq	%rax
	movq	%rdx, %rax
	orq	%rcx, %rax
	je	.LBB157_2
	callq	__udivti3@PLT
	popq	%rcx
	retq
.LBB157_2:
	leaq	str.0(%rip), %rdi
	leaq	.L__unnamed_5(%rip), %rdx
	movl	$25, %esi
	callq	_ZN4core5panic5panic17h6dbea6e1214c1483E@PLT
	ud2
.Lfunc_end157:
	.size	_ZN39_$LT$u128$u20$as$u20$core..ops..Div$GT$3div17h32cd5c1f231186abE, .Lfunc_end157-_ZN39_$LT$u128$u20$as$u20$core..ops..Div$GT$3div17h32cd5c1f231186abE

	.section	".text._ZN43_$LT$$RF$u128$u20$as$u20$core..ops..Div$GT$3div17h23485e072c15df30E","ax",@progbits
	.globl	_ZN43_$LT$$RF$u128$u20$as$u20$core..ops..Div$GT$3div17h23485e072c15df30E
	.p2align	4, 0x90
	.type	_ZN43_$LT$$RF$u128$u20$as$u20$core..ops..Div$GT$3div17h23485e072c15df30E,@function
_ZN43_$LT$$RF$u128$u20$as$u20$core..ops..Div$GT$3div17h23485e072c15df30E:
	pushq	%rax
	movq	(%rsi), %rdx
	movq	8(%rsi), %rcx
	movq	%rdx, %rax
	orq	%rcx, %rax
	je	.LBB158_2
	movq	(%rdi), %rax
	movq	8(%rdi), %rsi
	movq	%rax, %rdi
	callq	__udivti3@PLT
	popq	%rcx
	retq
.LBB158_2:
	leaq	str.0(%rip), %rdi
	leaq	.L__unnamed_5(%rip), %rdx
	movl	$25, %esi
	callq	_ZN4core5panic5panic17h6dbea6e1214c1483E@PLT
	ud2
.Lfunc_end158:
	.size	_ZN43_$LT$$RF$u128$u20$as$u20$core..ops..Div$GT$3div17h23485e072c15df30E, .Lfunc_end158-_ZN43_$LT$$RF$u128$u20$as$u20$core..ops..Div$GT$3div17h23485e072c15df30E

	.section	".text._ZN37_$LT$i8$u20$as$u20$core..ops..Div$GT$3div17h86116630768042efE","ax",@progbits
	.globl	_ZN37_$LT$i8$u20$as$u20$core..ops..Div$GT$3div17h86116630768042efE
	.p2align	4, 0x90
	.type	_ZN37_$LT$i8$u20$as$u20$core..ops..Div$GT$3div17h86116630768042efE,@function
_ZN37_$LT$i8$u20$as$u20$core..ops..Div$GT$3div17h86116630768042efE:
	pushq	%rax
	testb	%sil, %sil
	je	.LBB159_4
	cmpb	$-128, %dil
	jne	.LBB159_5
	cmpb	$-1, %sil
	je	.LBB159_3
.LBB159_5:
	movsbl	%dil, %eax
	idivb	%sil
	popq	%rcx
	retq
.LBB159_4:
	leaq	str.0(%rip), %rdi
	leaq	.L__unnamed_5(%rip), %rdx
	movl	$25, %esi
	callq	_ZN4core5panic5panic17h6dbea6e1214c1483E@PLT
	ud2
.LBB159_3:
	leaq	str.1(%rip), %rdi
	leaq	.L__unnamed_5(%rip), %rdx
	movl	$31, %esi
	callq	_ZN4core5panic5panic17h6dbea6e1214c1483E@PLT
	ud2
.Lfunc_end159:
	.size	_ZN37_$LT$i8$u20$as$u20$core..ops..Div$GT$3div17h86116630768042efE, .Lfunc_end159-_ZN37_$LT$i8$u20$as$u20$core..ops..Div$GT$3div17h86116630768042efE

	.section	".text._ZN41_$LT$$RF$i8$u20$as$u20$core..ops..Div$GT$3div17h484bd25096c6aabeE","ax",@progbits
	.globl	_ZN41_$LT$$RF$i8$u20$as$u20$core..ops..Div$GT$3div17h484bd25096c6aabeE
	.p2align	4, 0x90
	.type	_ZN41_$LT$$RF$i8$u20$as$u20$core..ops..Div$GT$3div17h484bd25096c6aabeE,@function
_ZN41_$LT$$RF$i8$u20$as$u20$core..ops..Div$GT$3div17h484bd25096c6aabeE:
	pushq	%rax
	movb	(%rsi), %cl
	testb	%cl, %cl
	je	.LBB160_4
	movb	(%rdi), %al
	cmpb	$-128, %al
	jne	.LBB160_5
	cmpb	$-1, %cl
	je	.LBB160_3
.LBB160_5:
	cbtw
	idivb	%cl
	popq	%rcx
	retq
.LBB160_4:
	leaq	str.0(%rip), %rdi
	leaq	.L__unnamed_5(%rip), %rdx
	movl	$25, %esi
	callq	_ZN4core5panic5panic17h6dbea6e1214c1483E@PLT
	ud2
.LBB160_3:
	leaq	str.1(%rip), %rdi
	leaq	.L__unnamed_5(%rip), %rdx
	movl	$31, %esi
	callq	_ZN4core5panic5panic17h6dbea6e1214c1483E@PLT
	ud2
.Lfunc_end160:
	.size	_ZN41_$LT$$RF$i8$u20$as$u20$core..ops..Div$GT$3div17h484bd25096c6aabeE, .Lfunc_end160-_ZN41_$LT$$RF$i8$u20$as$u20$core..ops..Div$GT$3div17h484bd25096c6aabeE

	.section	".text._ZN38_$LT$i16$u20$as$u20$core..ops..Div$GT$3div17h3e87c4cd93c42950E","ax",@progbits
	.globl	_ZN38_$LT$i16$u20$as$u20$core..ops..Div$GT$3div17h3e87c4cd93c42950E
	.p2align	4, 0x90
	.type	_ZN38_$LT$i16$u20$as$u20$core..ops..Div$GT$3div17h3e87c4cd93c42950E,@function
_ZN38_$LT$i16$u20$as$u20$core..ops..Div$GT$3div17h3e87c4cd93c42950E:
	pushq	%rax
	testw	%si, %si
	je	.LBB161_4
	movzwl	%di, %eax
	cmpl	$32768, %eax
	jne	.LBB161_5
	cmpw	$-1, %si
	je	.LBB161_3
.LBB161_5:
	movl	%edi, %eax
	cwtd
	idivw	%si
	popq	%rcx
	retq
.LBB161_4:
	leaq	str.0(%rip), %rdi
	leaq	.L__unnamed_5(%rip), %rdx
	movl	$25, %esi
	callq	_ZN4core5panic5panic17h6dbea6e1214c1483E@PLT
	ud2
.LBB161_3:
	leaq	str.1(%rip), %rdi
	leaq	.L__unnamed_5(%rip), %rdx
	movl	$31, %esi
	callq	_ZN4core5panic5panic17h6dbea6e1214c1483E@PLT
	ud2
.Lfunc_end161:
	.size	_ZN38_$LT$i16$u20$as$u20$core..ops..Div$GT$3div17h3e87c4cd93c42950E, .Lfunc_end161-_ZN38_$LT$i16$u20$as$u20$core..ops..Div$GT$3div17h3e87c4cd93c42950E

	.section	".text._ZN42_$LT$$RF$i16$u20$as$u20$core..ops..Div$GT$3div17hfa62b2d9ea90b00aE","ax",@progbits
	.globl	_ZN42_$LT$$RF$i16$u20$as$u20$core..ops..Div$GT$3div17hfa62b2d9ea90b00aE
	.p2align	4, 0x90
	.type	_ZN42_$LT$$RF$i16$u20$as$u20$core..ops..Div$GT$3div17hfa62b2d9ea90b00aE,@function
_ZN42_$LT$$RF$i16$u20$as$u20$core..ops..Div$GT$3div17hfa62b2d9ea90b00aE:
	pushq	%rax
	movzwl	(%rsi), %ecx
	testw	%cx, %cx
	je	.LBB162_4
	movzwl	(%rdi), %eax
	movzwl	%ax, %edx
	cmpl	$32768, %edx
	jne	.LBB162_5
	cmpw	$-1, %cx
	je	.LBB162_3
.LBB162_5:
	cwtd
	idivw	%cx
	popq	%rcx
	retq
.LBB162_4:
	leaq	str.0(%rip), %rdi
	leaq	.L__unnamed_5(%rip), %rdx
	movl	$25, %esi
	callq	_ZN4core5panic5panic17h6dbea6e1214c1483E@PLT
	ud2
.LBB162_3:
	leaq	str.1(%rip), %rdi
	leaq	.L__unnamed_5(%rip), %rdx
	movl	$31, %esi
	callq	_ZN4core5panic5panic17h6dbea6e1214c1483E@PLT
	ud2
.Lfunc_end162:
	.size	_ZN42_$LT$$RF$i16$u20$as$u20$core..ops..Div$GT$3div17hfa62b2d9ea90b00aE, .Lfunc_end162-_ZN42_$LT$$RF$i16$u20$as$u20$core..ops..Div$GT$3div17hfa62b2d9ea90b00aE

	.section	".text._ZN38_$LT$i32$u20$as$u20$core..ops..Div$GT$3div17h1d66e757c7a515d8E","ax",@progbits
	.globl	_ZN38_$LT$i32$u20$as$u20$core..ops..Div$GT$3div17h1d66e757c7a515d8E
	.p2align	4, 0x90
	.type	_ZN38_$LT$i32$u20$as$u20$core..ops..Div$GT$3div17h1d66e757c7a515d8E,@function
_ZN38_$LT$i32$u20$as$u20$core..ops..Div$GT$3div17h1d66e757c7a515d8E:
	pushq	%rax
	testl	%esi, %esi
	je	.LBB163_4
	cmpl	$-2147483648, %edi
	jne	.LBB163_5
	cmpl	$-1, %esi
	je	.LBB163_3
.LBB163_5:
	movl	%edi, %eax
	cltd
	idivl	%esi
	popq	%rcx
	retq
.LBB163_4:
	leaq	str.0(%rip), %rdi
	leaq	.L__unnamed_5(%rip), %rdx
	movl	$25, %esi
	callq	_ZN4core5panic5panic17h6dbea6e1214c1483E@PLT
	ud2
.LBB163_3:
	leaq	str.1(%rip), %rdi
	leaq	.L__unnamed_5(%rip), %rdx
	movl	$31, %esi
	callq	_ZN4core5panic5panic17h6dbea6e1214c1483E@PLT
	ud2
.Lfunc_end163:
	.size	_ZN38_$LT$i32$u20$as$u20$core..ops..Div$GT$3div17h1d66e757c7a515d8E, .Lfunc_end163-_ZN38_$LT$i32$u20$as$u20$core..ops..Div$GT$3div17h1d66e757c7a515d8E

	.section	".text._ZN42_$LT$$RF$i32$u20$as$u20$core..ops..Div$GT$3div17h79ab2e350c67183aE","ax",@progbits
	.globl	_ZN42_$LT$$RF$i32$u20$as$u20$core..ops..Div$GT$3div17h79ab2e350c67183aE
	.p2align	4, 0x90
	.type	_ZN42_$LT$$RF$i32$u20$as$u20$core..ops..Div$GT$3div17h79ab2e350c67183aE,@function
_ZN42_$LT$$RF$i32$u20$as$u20$core..ops..Div$GT$3div17h79ab2e350c67183aE:
	pushq	%rax
	movl	(%rsi), %ecx
	testl	%ecx, %ecx
	je	.LBB164_4
	movl	(%rdi), %eax
	cmpl	$-2147483648, %eax
	jne	.LBB164_5
	cmpl	$-1, %ecx
	je	.LBB164_3
.LBB164_5:
	cltd
	idivl	%ecx
	popq	%rcx
	retq
.LBB164_4:
	leaq	str.0(%rip), %rdi
	leaq	.L__unnamed_5(%rip), %rdx
	movl	$25, %esi
	callq	_ZN4core5panic5panic17h6dbea6e1214c1483E@PLT
	ud2
.LBB164_3:
	leaq	str.1(%rip), %rdi
	leaq	.L__unnamed_5(%rip), %rdx
	movl	$31, %esi
	callq	_ZN4core5panic5panic17h6dbea6e1214c1483E@PLT
	ud2
.Lfunc_end164:
	.size	_ZN42_$LT$$RF$i32$u20$as$u20$core..ops..Div$GT$3div17h79ab2e350c67183aE, .Lfunc_end164-_ZN42_$LT$$RF$i32$u20$as$u20$core..ops..Div$GT$3div17h79ab2e350c67183aE

	.section	".text._ZN38_$LT$i64$u20$as$u20$core..ops..Div$GT$3div17h9ff9ed8659cb1d65E","ax",@progbits
	.globl	_ZN38_$LT$i64$u20$as$u20$core..ops..Div$GT$3div17h9ff9ed8659cb1d65E
	.p2align	4, 0x90
	.type	_ZN38_$LT$i64$u20$as$u20$core..ops..Div$GT$3div17h9ff9ed8659cb1d65E,@function
_ZN38_$LT$i64$u20$as$u20$core..ops..Div$GT$3div17h9ff9ed8659cb1d65E:
	pushq	%rax
	testq	%rsi, %rsi
	je	.LBB165_8
	movabsq	$-9223372036854775808, %rax
	cmpq	%rax, %rdi
	jne	.LBB165_3
	cmpq	$-1, %rsi
	je	.LBB165_7
.LBB165_3:
	movq	%rdi, %rax
	orq	%rsi, %rax
	shrq	$32, %rax
	je	.LBB165_4
	movq	%rdi, %rax
	cqto
	idivq	%rsi
	popq	%rcx
	retq
.LBB165_4:
	movl	%edi, %eax
	xorl	%edx, %edx
	divl	%esi
	popq	%rcx
	retq
.LBB165_8:
	leaq	str.0(%rip), %rdi
	leaq	.L__unnamed_5(%rip), %rdx
	movl	$25, %esi
	callq	_ZN4core5panic5panic17h6dbea6e1214c1483E@PLT
	ud2
.LBB165_7:
	leaq	str.1(%rip), %rdi
	leaq	.L__unnamed_5(%rip), %rdx
	movl	$31, %esi
	callq	_ZN4core5panic5panic17h6dbea6e1214c1483E@PLT
	ud2
.Lfunc_end165:
	.size	_ZN38_$LT$i64$u20$as$u20$core..ops..Div$GT$3div17h9ff9ed8659cb1d65E, .Lfunc_end165-_ZN38_$LT$i64$u20$as$u20$core..ops..Div$GT$3div17h9ff9ed8659cb1d65E

	.section	".text._ZN42_$LT$$RF$i64$u20$as$u20$core..ops..Div$GT$3div17hb78b42426312f778E","ax",@progbits
	.globl	_ZN42_$LT$$RF$i64$u20$as$u20$core..ops..Div$GT$3div17hb78b42426312f778E
	.p2align	4, 0x90
	.type	_ZN42_$LT$$RF$i64$u20$as$u20$core..ops..Div$GT$3div17hb78b42426312f778E,@function
_ZN42_$LT$$RF$i64$u20$as$u20$core..ops..Div$GT$3div17hb78b42426312f778E:
	pushq	%rax
	movq	(%rsi), %rcx
	testq	%rcx, %rcx
	je	.LBB166_8
	movq	(%rdi), %rax
	movabsq	$-9223372036854775808, %rdx
	cmpq	%rdx, %rax
	jne	.LBB166_3
	cmpq	$-1, %rcx
	je	.LBB166_7
.LBB166_3:
	movq	%rax, %rdx
	orq	%rcx, %rdx
	shrq	$32, %rdx
	je	.LBB166_4
	cqto
	idivq	%rcx
	popq	%rcx
	retq
.LBB166_4:
	xorl	%edx, %edx
	divl	%ecx
	popq	%rcx
	retq
.LBB166_8:
	leaq	str.0(%rip), %rdi
	leaq	.L__unnamed_5(%rip), %rdx
	movl	$25, %esi
	callq	_ZN4core5panic5panic17h6dbea6e1214c1483E@PLT
	ud2
.LBB166_7:
	leaq	str.1(%rip), %rdi
	leaq	.L__unnamed_5(%rip), %rdx
	movl	$31, %esi
	callq	_ZN4core5panic5panic17h6dbea6e1214c1483E@PLT
	ud2
.Lfunc_end166:
	.size	_ZN42_$LT$$RF$i64$u20$as$u20$core..ops..Div$GT$3div17hb78b42426312f778E, .Lfunc_end166-_ZN42_$LT$$RF$i64$u20$as$u20$core..ops..Div$GT$3div17hb78b42426312f778E

	.section	".text._ZN39_$LT$i128$u20$as$u20$core..ops..Div$GT$3div17h7aa5d9ad32de60b6E","ax",@progbits
	.globl	_ZN39_$LT$i128$u20$as$u20$core..ops..Div$GT$3div17h7aa5d9ad32de60b6E
	.p2align	4, 0x90
	.type	_ZN39_$LT$i128$u20$as$u20$core..ops..Div$GT$3div17h7aa5d9ad32de60b6E,@function
_ZN39_$LT$i128$u20$as$u20$core..ops..Div$GT$3div17h7aa5d9ad32de60b6E:
	pushq	%rax
	movq	%rdx, %rax
	orq	%rcx, %rax
	je	.LBB167_4
	movabsq	$-9223372036854775808, %rax
	xorq	%rsi, %rax
	orq	%rdi, %rax
	jne	.LBB167_5
	movq	%rdx, %rax
	andq	%rcx, %rax
	cmpq	$-1, %rax
	je	.LBB167_3
.LBB167_5:
	callq	__divti3@PLT
	popq	%rcx
	retq
.LBB167_4:
	leaq	str.0(%rip), %rdi
	leaq	.L__unnamed_5(%rip), %rdx
	movl	$25, %esi
	callq	_ZN4core5panic5panic17h6dbea6e1214c1483E@PLT
	ud2
.LBB167_3:
	leaq	str.1(%rip), %rdi
	leaq	.L__unnamed_5(%rip), %rdx
	movl	$31, %esi
	callq	_ZN4core5panic5panic17h6dbea6e1214c1483E@PLT
	ud2
.Lfunc_end167:
	.size	_ZN39_$LT$i128$u20$as$u20$core..ops..Div$GT$3div17h7aa5d9ad32de60b6E, .Lfunc_end167-_ZN39_$LT$i128$u20$as$u20$core..ops..Div$GT$3div17h7aa5d9ad32de60b6E

	.section	".text._ZN43_$LT$$RF$i128$u20$as$u20$core..ops..Div$GT$3div17hf9cc617ac72948b4E","ax",@progbits
	.globl	_ZN43_$LT$$RF$i128$u20$as$u20$core..ops..Div$GT$3div17hf9cc617ac72948b4E
	.p2align	4, 0x90
	.type	_ZN43_$LT$$RF$i128$u20$as$u20$core..ops..Div$GT$3div17hf9cc617ac72948b4E,@function
_ZN43_$LT$$RF$i128$u20$as$u20$core..ops..Div$GT$3div17hf9cc617ac72948b4E:
	pushq	%rax
	movq	(%rsi), %rdx
	movq	8(%rsi), %rcx
	movq	%rdx, %rsi
	orq	%rcx, %rsi
	je	.LBB168_4
	movq	%rdi, %rax
	movq	(%rdi), %rdi
	movq	8(%rax), %rsi
	movabsq	$-9223372036854775808, %rax
	xorq	%rsi, %rax
	orq	%rdi, %rax
	jne	.LBB168_5
	movq	%rdx, %rax
	andq	%rcx, %rax
	cmpq	$-1, %rax
	je	.LBB168_3
.LBB168_5:
	callq	__divti3@PLT
	popq	%rcx
	retq
.LBB168_4:
	leaq	str.0(%rip), %rdi
	leaq	.L__unnamed_5(%rip), %rdx
	movl	$25, %esi
	callq	_ZN4core5panic5panic17h6dbea6e1214c1483E@PLT
	ud2
.LBB168_3:
	leaq	str.1(%rip), %rdi
	leaq	.L__unnamed_5(%rip), %rdx
	movl	$31, %esi
	callq	_ZN4core5panic5panic17h6dbea6e1214c1483E@PLT
	ud2
.Lfunc_end168:
	.size	_ZN43_$LT$$RF$i128$u20$as$u20$core..ops..Div$GT$3div17hf9cc617ac72948b4E, .Lfunc_end168-_ZN43_$LT$$RF$i128$u20$as$u20$core..ops..Div$GT$3div17hf9cc617ac72948b4E

	.section	".text._ZN38_$LT$f32$u20$as$u20$core..ops..Div$GT$3div17hb9435d8631235777E","ax",@progbits
	.globl	_ZN38_$LT$f32$u20$as$u20$core..ops..Div$GT$3div17hb9435d8631235777E
	.p2align	4, 0x90
	.type	_ZN38_$LT$f32$u20$as$u20$core..ops..Div$GT$3div17hb9435d8631235777E,@function
_ZN38_$LT$f32$u20$as$u20$core..ops..Div$GT$3div17hb9435d8631235777E:
	pushq	%rax
	callq	__divsf3@PLT
	popq	%rcx
	retq
.Lfunc_end169:
	.size	_ZN38_$LT$f32$u20$as$u20$core..ops..Div$GT$3div17hb9435d8631235777E, .Lfunc_end169-_ZN38_$LT$f32$u20$as$u20$core..ops..Div$GT$3div17hb9435d8631235777E

	.section	".text._ZN42_$LT$$RF$f32$u20$as$u20$core..ops..Div$GT$3div17h40eb0e8809b00a17E","ax",@progbits
	.globl	_ZN42_$LT$$RF$f32$u20$as$u20$core..ops..Div$GT$3div17h40eb0e8809b00a17E
	.p2align	4, 0x90
	.type	_ZN42_$LT$$RF$f32$u20$as$u20$core..ops..Div$GT$3div17h40eb0e8809b00a17E,@function
_ZN42_$LT$$RF$f32$u20$as$u20$core..ops..Div$GT$3div17h40eb0e8809b00a17E:
	pushq	%rax
	movl	(%rdi), %edi
	movl	(%rsi), %esi
	callq	__divsf3@PLT
	popq	%rcx
	retq
.Lfunc_end170:
	.size	_ZN42_$LT$$RF$f32$u20$as$u20$core..ops..Div$GT$3div17h40eb0e8809b00a17E, .Lfunc_end170-_ZN42_$LT$$RF$f32$u20$as$u20$core..ops..Div$GT$3div17h40eb0e8809b00a17E

	.section	".text._ZN38_$LT$f64$u20$as$u20$core..ops..Div$GT$3div17h73cd3e45deff8a28E","ax",@progbits
	.globl	_ZN38_$LT$f64$u20$as$u20$core..ops..Div$GT$3div17h73cd3e45deff8a28E
	.p2align	4, 0x90
	.type	_ZN38_$LT$f64$u20$as$u20$core..ops..Div$GT$3div17h73cd3e45deff8a28E,@function
_ZN38_$LT$f64$u20$as$u20$core..ops..Div$GT$3div17h73cd3e45deff8a28E:
	pushq	%rax
	callq	__divdf3@PLT
	popq	%rcx
	retq
.Lfunc_end171:
	.size	_ZN38_$LT$f64$u20$as$u20$core..ops..Div$GT$3div17h73cd3e45deff8a28E, .Lfunc_end171-_ZN38_$LT$f64$u20$as$u20$core..ops..Div$GT$3div17h73cd3e45deff8a28E

	.section	".text._ZN42_$LT$$RF$f64$u20$as$u20$core..ops..Div$GT$3div17h2ab8c3576497d117E","ax",@progbits
	.globl	_ZN42_$LT$$RF$f64$u20$as$u20$core..ops..Div$GT$3div17h2ab8c3576497d117E
	.p2align	4, 0x90
	.type	_ZN42_$LT$$RF$f64$u20$as$u20$core..ops..Div$GT$3div17h2ab8c3576497d117E,@function
_ZN42_$LT$$RF$f64$u20$as$u20$core..ops..Div$GT$3div17h2ab8c3576497d117E:
	pushq	%rax
	movq	(%rdi), %rdi
	movq	(%rsi), %rsi
	callq	__divdf3@PLT
	popq	%rcx
	retq
.Lfunc_end172:
	.size	_ZN42_$LT$$RF$f64$u20$as$u20$core..ops..Div$GT$3div17h2ab8c3576497d117E, .Lfunc_end172-_ZN42_$LT$$RF$f64$u20$as$u20$core..ops..Div$GT$3div17h2ab8c3576497d117E

	.section	".text._ZN37_$LT$u8$u20$as$u20$core..ops..Rem$GT$3rem17h50e84c733f94ef53E","ax",@progbits
	.globl	_ZN37_$LT$u8$u20$as$u20$core..ops..Rem$GT$3rem17h50e84c733f94ef53E
	.p2align	4, 0x90
	.type	_ZN37_$LT$u8$u20$as$u20$core..ops..Rem$GT$3rem17h50e84c733f94ef53E,@function
_ZN37_$LT$u8$u20$as$u20$core..ops..Rem$GT$3rem17h50e84c733f94ef53E:
	testb	%sil, %sil
	je	.LBB173_2
	movzbl	%dil, %eax
	divb	%sil
	movzbl	%ah, %eax
	retq
.LBB173_2:
	pushq	%rax
	leaq	str.2(%rip), %rdi
	leaq	.L__unnamed_5(%rip), %rdx
	movl	$57, %esi
	callq	_ZN4core5panic5panic17h6dbea6e1214c1483E@PLT
	ud2
.Lfunc_end173:
	.size	_ZN37_$LT$u8$u20$as$u20$core..ops..Rem$GT$3rem17h50e84c733f94ef53E, .Lfunc_end173-_ZN37_$LT$u8$u20$as$u20$core..ops..Rem$GT$3rem17h50e84c733f94ef53E

	.section	".text._ZN41_$LT$$RF$u8$u20$as$u20$core..ops..Rem$GT$3rem17h9830d38aaee01621E","ax",@progbits
	.globl	_ZN41_$LT$$RF$u8$u20$as$u20$core..ops..Rem$GT$3rem17h9830d38aaee01621E
	.p2align	4, 0x90
	.type	_ZN41_$LT$$RF$u8$u20$as$u20$core..ops..Rem$GT$3rem17h9830d38aaee01621E,@function
_ZN41_$LT$$RF$u8$u20$as$u20$core..ops..Rem$GT$3rem17h9830d38aaee01621E:
	pushq	%rax
	movb	(%rsi), %cl
	testb	%cl, %cl
	je	.LBB174_2
	movzbl	(%rdi), %eax
	divb	%cl
	movzbl	%ah, %eax
	popq	%rcx
	retq
.LBB174_2:
	leaq	str.2(%rip), %rdi
	leaq	.L__unnamed_5(%rip), %rdx
	movl	$57, %esi
	callq	_ZN4core5panic5panic17h6dbea6e1214c1483E@PLT
	ud2
.Lfunc_end174:
	.size	_ZN41_$LT$$RF$u8$u20$as$u20$core..ops..Rem$GT$3rem17h9830d38aaee01621E, .Lfunc_end174-_ZN41_$LT$$RF$u8$u20$as$u20$core..ops..Rem$GT$3rem17h9830d38aaee01621E

	.section	".text._ZN38_$LT$u16$u20$as$u20$core..ops..Rem$GT$3rem17h4ccdb42394756224E","ax",@progbits
	.globl	_ZN38_$LT$u16$u20$as$u20$core..ops..Rem$GT$3rem17h4ccdb42394756224E
	.p2align	4, 0x90
	.type	_ZN38_$LT$u16$u20$as$u20$core..ops..Rem$GT$3rem17h4ccdb42394756224E,@function
_ZN38_$LT$u16$u20$as$u20$core..ops..Rem$GT$3rem17h4ccdb42394756224E:
	testw	%si, %si
	je	.LBB175_2
	movl	%edi, %eax
	xorl	%edx, %edx
	divw	%si
	movl	%edx, %eax
	retq
.LBB175_2:
	pushq	%rax
	leaq	str.2(%rip), %rdi
	leaq	.L__unnamed_5(%rip), %rdx
	movl	$57, %esi
	callq	_ZN4core5panic5panic17h6dbea6e1214c1483E@PLT
	ud2
.Lfunc_end175:
	.size	_ZN38_$LT$u16$u20$as$u20$core..ops..Rem$GT$3rem17h4ccdb42394756224E, .Lfunc_end175-_ZN38_$LT$u16$u20$as$u20$core..ops..Rem$GT$3rem17h4ccdb42394756224E

	.section	".text._ZN42_$LT$$RF$u16$u20$as$u20$core..ops..Rem$GT$3rem17h7eed77a4af8dc9beE","ax",@progbits
	.globl	_ZN42_$LT$$RF$u16$u20$as$u20$core..ops..Rem$GT$3rem17h7eed77a4af8dc9beE
	.p2align	4, 0x90
	.type	_ZN42_$LT$$RF$u16$u20$as$u20$core..ops..Rem$GT$3rem17h7eed77a4af8dc9beE,@function
_ZN42_$LT$$RF$u16$u20$as$u20$core..ops..Rem$GT$3rem17h7eed77a4af8dc9beE:
	pushq	%rax
	movzwl	(%rsi), %ecx
	testw	%cx, %cx
	je	.LBB176_2
	movzwl	(%rdi), %eax
	xorl	%edx, %edx
	divw	%cx
	movl	%edx, %eax
	popq	%rcx
	retq
.LBB176_2:
	leaq	str.2(%rip), %rdi
	leaq	.L__unnamed_5(%rip), %rdx
	movl	$57, %esi
	callq	_ZN4core5panic5panic17h6dbea6e1214c1483E@PLT
	ud2
.Lfunc_end176:
	.size	_ZN42_$LT$$RF$u16$u20$as$u20$core..ops..Rem$GT$3rem17h7eed77a4af8dc9beE, .Lfunc_end176-_ZN42_$LT$$RF$u16$u20$as$u20$core..ops..Rem$GT$3rem17h7eed77a4af8dc9beE

	.section	".text._ZN38_$LT$u32$u20$as$u20$core..ops..Rem$GT$3rem17h221cbe18e7c2d529E","ax",@progbits
	.globl	_ZN38_$LT$u32$u20$as$u20$core..ops..Rem$GT$3rem17h221cbe18e7c2d529E
	.p2align	4, 0x90
	.type	_ZN38_$LT$u32$u20$as$u20$core..ops..Rem$GT$3rem17h221cbe18e7c2d529E,@function
_ZN38_$LT$u32$u20$as$u20$core..ops..Rem$GT$3rem17h221cbe18e7c2d529E:
	testl	%esi, %esi
	je	.LBB177_2
	movl	%edi, %eax
	xorl	%edx, %edx
	divl	%esi
	movl	%edx, %eax
	retq
.LBB177_2:
	pushq	%rax
	leaq	str.2(%rip), %rdi
	leaq	.L__unnamed_5(%rip), %rdx
	movl	$57, %esi
	callq	_ZN4core5panic5panic17h6dbea6e1214c1483E@PLT
	ud2
.Lfunc_end177:
	.size	_ZN38_$LT$u32$u20$as$u20$core..ops..Rem$GT$3rem17h221cbe18e7c2d529E, .Lfunc_end177-_ZN38_$LT$u32$u20$as$u20$core..ops..Rem$GT$3rem17h221cbe18e7c2d529E

	.section	".text._ZN42_$LT$$RF$u32$u20$as$u20$core..ops..Rem$GT$3rem17he13bfd1a46831361E","ax",@progbits
	.globl	_ZN42_$LT$$RF$u32$u20$as$u20$core..ops..Rem$GT$3rem17he13bfd1a46831361E
	.p2align	4, 0x90
	.type	_ZN42_$LT$$RF$u32$u20$as$u20$core..ops..Rem$GT$3rem17he13bfd1a46831361E,@function
_ZN42_$LT$$RF$u32$u20$as$u20$core..ops..Rem$GT$3rem17he13bfd1a46831361E:
	pushq	%rax
	movl	(%rsi), %ecx
	testl	%ecx, %ecx
	je	.LBB178_2
	movl	(%rdi), %eax
	xorl	%edx, %edx
	divl	%ecx
	movl	%edx, %eax
	popq	%rcx
	retq
.LBB178_2:
	leaq	str.2(%rip), %rdi
	leaq	.L__unnamed_5(%rip), %rdx
	movl	$57, %esi
	callq	_ZN4core5panic5panic17h6dbea6e1214c1483E@PLT
	ud2
.Lfunc_end178:
	.size	_ZN42_$LT$$RF$u32$u20$as$u20$core..ops..Rem$GT$3rem17he13bfd1a46831361E, .Lfunc_end178-_ZN42_$LT$$RF$u32$u20$as$u20$core..ops..Rem$GT$3rem17he13bfd1a46831361E

	.section	".text._ZN38_$LT$u64$u20$as$u20$core..ops..Rem$GT$3rem17h0bf1f248f7966bbcE","ax",@progbits
	.globl	_ZN38_$LT$u64$u20$as$u20$core..ops..Rem$GT$3rem17h0bf1f248f7966bbcE
	.p2align	4, 0x90
	.type	_ZN38_$LT$u64$u20$as$u20$core..ops..Rem$GT$3rem17h0bf1f248f7966bbcE,@function
_ZN38_$LT$u64$u20$as$u20$core..ops..Rem$GT$3rem17h0bf1f248f7966bbcE:
	testq	%rsi, %rsi
	je	.LBB179_5
	movq	%rdi, %rax
	orq	%rsi, %rax
	shrq	$32, %rax
	je	.LBB179_2
	movq	%rdi, %rax
	xorl	%edx, %edx
	divq	%rsi
	movq	%rdx, %rax
	retq
.LBB179_2:
	movl	%edi, %eax
	xorl	%edx, %edx
	divl	%esi
	movl	%edx, %eax
	retq
.LBB179_5:
	pushq	%rax
	leaq	str.2(%rip), %rdi
	leaq	.L__unnamed_5(%rip), %rdx
	movl	$57, %esi
	callq	_ZN4core5panic5panic17h6dbea6e1214c1483E@PLT
	ud2
.Lfunc_end179:
	.size	_ZN38_$LT$u64$u20$as$u20$core..ops..Rem$GT$3rem17h0bf1f248f7966bbcE, .Lfunc_end179-_ZN38_$LT$u64$u20$as$u20$core..ops..Rem$GT$3rem17h0bf1f248f7966bbcE

	.section	".text._ZN42_$LT$$RF$u64$u20$as$u20$core..ops..Rem$GT$3rem17hb4d80ee90f358607E","ax",@progbits
	.globl	_ZN42_$LT$$RF$u64$u20$as$u20$core..ops..Rem$GT$3rem17hb4d80ee90f358607E
	.p2align	4, 0x90
	.type	_ZN42_$LT$$RF$u64$u20$as$u20$core..ops..Rem$GT$3rem17hb4d80ee90f358607E,@function
_ZN42_$LT$$RF$u64$u20$as$u20$core..ops..Rem$GT$3rem17hb4d80ee90f358607E:
	pushq	%rax
	movq	(%rsi), %rcx
	testq	%rcx, %rcx
	je	.LBB180_5
	movq	(%rdi), %rax
	movq	%rax, %rdx
	orq	%rcx, %rdx
	shrq	$32, %rdx
	je	.LBB180_2
	xorl	%edx, %edx
	divq	%rcx
	movq	%rdx, %rax
	popq	%rcx
	retq
.LBB180_2:
	xorl	%edx, %edx
	divl	%ecx
	movl	%edx, %eax
	popq	%rcx
	retq
.LBB180_5:
	leaq	str.2(%rip), %rdi
	leaq	.L__unnamed_5(%rip), %rdx
	movl	$57, %esi
	callq	_ZN4core5panic5panic17h6dbea6e1214c1483E@PLT
	ud2
.Lfunc_end180:
	.size	_ZN42_$LT$$RF$u64$u20$as$u20$core..ops..Rem$GT$3rem17hb4d80ee90f358607E, .Lfunc_end180-_ZN42_$LT$$RF$u64$u20$as$u20$core..ops..Rem$GT$3rem17hb4d80ee90f358607E

	.section	".text._ZN39_$LT$u128$u20$as$u20$core..ops..Rem$GT$3rem17hbfd7b67d09a2998aE","ax",@progbits
	.globl	_ZN39_$LT$u128$u20$as$u20$core..ops..Rem$GT$3rem17hbfd7b67d09a2998aE
	.p2align	4, 0x90
	.type	_ZN39_$LT$u128$u20$as$u20$core..ops..Rem$GT$3rem17hbfd7b67d09a2998aE,@function
_ZN39_$LT$u128$u20$as$u20$core..ops..Rem$GT$3rem17hbfd7b67d09a2998aE:
	pushq	%rax
	movq	%rdx, %rax
	orq	%rcx, %rax
	je	.LBB181_2
	callq	__umodti3@PLT
	popq	%rcx
	retq
.LBB181_2:
	leaq	str.2(%rip), %rdi
	leaq	.L__unnamed_5(%rip), %rdx
	movl	$57, %esi
	callq	_ZN4core5panic5panic17h6dbea6e1214c1483E@PLT
	ud2
.Lfunc_end181:
	.size	_ZN39_$LT$u128$u20$as$u20$core..ops..Rem$GT$3rem17hbfd7b67d09a2998aE, .Lfunc_end181-_ZN39_$LT$u128$u20$as$u20$core..ops..Rem$GT$3rem17hbfd7b67d09a2998aE

	.section	".text._ZN43_$LT$$RF$u128$u20$as$u20$core..ops..Rem$GT$3rem17hee264420f9eec20eE","ax",@progbits
	.globl	_ZN43_$LT$$RF$u128$u20$as$u20$core..ops..Rem$GT$3rem17hee264420f9eec20eE
	.p2align	4, 0x90
	.type	_ZN43_$LT$$RF$u128$u20$as$u20$core..ops..Rem$GT$3rem17hee264420f9eec20eE,@function
_ZN43_$LT$$RF$u128$u20$as$u20$core..ops..Rem$GT$3rem17hee264420f9eec20eE:
	pushq	%rax
	movq	(%rsi), %rdx
	movq	8(%rsi), %rcx
	movq	%rdx, %rax
	orq	%rcx, %rax
	je	.LBB182_2
	movq	(%rdi), %rax
	movq	8(%rdi), %rsi
	movq	%rax, %rdi
	callq	__umodti3@PLT
	popq	%rcx
	retq
.LBB182_2:
	leaq	str.2(%rip), %rdi
	leaq	.L__unnamed_5(%rip), %rdx
	movl	$57, %esi
	callq	_ZN4core5panic5panic17h6dbea6e1214c1483E@PLT
	ud2
.Lfunc_end182:
	.size	_ZN43_$LT$$RF$u128$u20$as$u20$core..ops..Rem$GT$3rem17hee264420f9eec20eE, .Lfunc_end182-_ZN43_$LT$$RF$u128$u20$as$u20$core..ops..Rem$GT$3rem17hee264420f9eec20eE

	.section	".text._ZN37_$LT$i8$u20$as$u20$core..ops..Rem$GT$3rem17h7d49af7d58b7f3a2E","ax",@progbits
	.globl	_ZN37_$LT$i8$u20$as$u20$core..ops..Rem$GT$3rem17h7d49af7d58b7f3a2E
	.p2align	4, 0x90
	.type	_ZN37_$LT$i8$u20$as$u20$core..ops..Rem$GT$3rem17h7d49af7d58b7f3a2E,@function
_ZN37_$LT$i8$u20$as$u20$core..ops..Rem$GT$3rem17h7d49af7d58b7f3a2E:
	pushq	%rax
	testb	%sil, %sil
	je	.LBB183_4
	cmpb	$-128, %dil
	jne	.LBB183_5
	cmpb	$-1, %sil
	je	.LBB183_3
.LBB183_5:
	movsbl	%dil, %eax
	idivb	%sil
	movsbl	%ah, %eax
	popq	%rcx
	retq
.LBB183_4:
	leaq	str.2(%rip), %rdi
	leaq	.L__unnamed_5(%rip), %rdx
	movl	$57, %esi
	callq	_ZN4core5panic5panic17h6dbea6e1214c1483E@PLT
	ud2
.LBB183_3:
	leaq	str.3(%rip), %rdi
	leaq	.L__unnamed_5(%rip), %rdx
	movl	$48, %esi
	callq	_ZN4core5panic5panic17h6dbea6e1214c1483E@PLT
	ud2
.Lfunc_end183:
	.size	_ZN37_$LT$i8$u20$as$u20$core..ops..Rem$GT$3rem17h7d49af7d58b7f3a2E, .Lfunc_end183-_ZN37_$LT$i8$u20$as$u20$core..ops..Rem$GT$3rem17h7d49af7d58b7f3a2E

	.section	".text._ZN41_$LT$$RF$i8$u20$as$u20$core..ops..Rem$GT$3rem17hc83e5ffca8e8ea43E","ax",@progbits
	.globl	_ZN41_$LT$$RF$i8$u20$as$u20$core..ops..Rem$GT$3rem17hc83e5ffca8e8ea43E
	.p2align	4, 0x90
	.type	_ZN41_$LT$$RF$i8$u20$as$u20$core..ops..Rem$GT$3rem17hc83e5ffca8e8ea43E,@function
_ZN41_$LT$$RF$i8$u20$as$u20$core..ops..Rem$GT$3rem17hc83e5ffca8e8ea43E:
	pushq	%rax
	movb	(%rsi), %cl
	testb	%cl, %cl
	je	.LBB184_4
	movb	(%rdi), %al
	cmpb	$-128, %al
	jne	.LBB184_5
	cmpb	$-1, %cl
	je	.LBB184_3
.LBB184_5:
	cbtw
	idivb	%cl
	movsbl	%ah, %eax
	popq	%rcx
	retq
.LBB184_4:
	leaq	str.2(%rip), %rdi
	leaq	.L__unnamed_5(%rip), %rdx
	movl	$57, %esi
	callq	_ZN4core5panic5panic17h6dbea6e1214c1483E@PLT
	ud2
.LBB184_3:
	leaq	str.3(%rip), %rdi
	leaq	.L__unnamed_5(%rip), %rdx
	movl	$48, %esi
	callq	_ZN4core5panic5panic17h6dbea6e1214c1483E@PLT
	ud2
.Lfunc_end184:
	.size	_ZN41_$LT$$RF$i8$u20$as$u20$core..ops..Rem$GT$3rem17hc83e5ffca8e8ea43E, .Lfunc_end184-_ZN41_$LT$$RF$i8$u20$as$u20$core..ops..Rem$GT$3rem17hc83e5ffca8e8ea43E

	.section	".text._ZN38_$LT$i16$u20$as$u20$core..ops..Rem$GT$3rem17h968de44be622846eE","ax",@progbits
	.globl	_ZN38_$LT$i16$u20$as$u20$core..ops..Rem$GT$3rem17h968de44be622846eE
	.p2align	4, 0x90
	.type	_ZN38_$LT$i16$u20$as$u20$core..ops..Rem$GT$3rem17h968de44be622846eE,@function
_ZN38_$LT$i16$u20$as$u20$core..ops..Rem$GT$3rem17h968de44be622846eE:
	pushq	%rax
	testw	%si, %si
	je	.LBB185_4
	movzwl	%di, %eax
	cmpl	$32768, %eax
	jne	.LBB185_5
	cmpw	$-1, %si
	je	.LBB185_3
.LBB185_5:
	movl	%edi, %eax
	cwtd
	idivw	%si
	movl	%edx, %eax
	popq	%rcx
	retq
.LBB185_4:
	leaq	str.2(%rip), %rdi
	leaq	.L__unnamed_5(%rip), %rdx
	movl	$57, %esi
	callq	_ZN4core5panic5panic17h6dbea6e1214c1483E@PLT
	ud2
.LBB185_3:
	leaq	str.3(%rip), %rdi
	leaq	.L__unnamed_5(%rip), %rdx
	movl	$48, %esi
	callq	_ZN4core5panic5panic17h6dbea6e1214c1483E@PLT
	ud2
.Lfunc_end185:
	.size	_ZN38_$LT$i16$u20$as$u20$core..ops..Rem$GT$3rem17h968de44be622846eE, .Lfunc_end185-_ZN38_$LT$i16$u20$as$u20$core..ops..Rem$GT$3rem17h968de44be622846eE

	.section	".text._ZN42_$LT$$RF$i16$u20$as$u20$core..ops..Rem$GT$3rem17h89ca508916947e06E","ax",@progbits
	.globl	_ZN42_$LT$$RF$i16$u20$as$u20$core..ops..Rem$GT$3rem17h89ca508916947e06E
	.p2align	4, 0x90
	.type	_ZN42_$LT$$RF$i16$u20$as$u20$core..ops..Rem$GT$3rem17h89ca508916947e06E,@function
_ZN42_$LT$$RF$i16$u20$as$u20$core..ops..Rem$GT$3rem17h89ca508916947e06E:
	pushq	%rax
	movzwl	(%rsi), %ecx
	testw	%cx, %cx
	je	.LBB186_4
	movzwl	(%rdi), %eax
	movzwl	%ax, %edx
	cmpl	$32768, %edx
	jne	.LBB186_5
	cmpw	$-1, %cx
	je	.LBB186_3
.LBB186_5:
	cwtd
	idivw	%cx
	movl	%edx, %eax
	popq	%rcx
	retq
.LBB186_4:
	leaq	str.2(%rip), %rdi
	leaq	.L__unnamed_5(%rip), %rdx
	movl	$57, %esi
	callq	_ZN4core5panic5panic17h6dbea6e1214c1483E@PLT
	ud2
.LBB186_3:
	leaq	str.3(%rip), %rdi
	leaq	.L__unnamed_5(%rip), %rdx
	movl	$48, %esi
	callq	_ZN4core5panic5panic17h6dbea6e1214c1483E@PLT
	ud2
.Lfunc_end186:
	.size	_ZN42_$LT$$RF$i16$u20$as$u20$core..ops..Rem$GT$3rem17h89ca508916947e06E, .Lfunc_end186-_ZN42_$LT$$RF$i16$u20$as$u20$core..ops..Rem$GT$3rem17h89ca508916947e06E

	.section	".text._ZN38_$LT$i32$u20$as$u20$core..ops..Rem$GT$3rem17hbca1e0ca48f450fcE","ax",@progbits
	.globl	_ZN38_$LT$i32$u20$as$u20$core..ops..Rem$GT$3rem17hbca1e0ca48f450fcE
	.p2align	4, 0x90
	.type	_ZN38_$LT$i32$u20$as$u20$core..ops..Rem$GT$3rem17hbca1e0ca48f450fcE,@function
_ZN38_$LT$i32$u20$as$u20$core..ops..Rem$GT$3rem17hbca1e0ca48f450fcE:
	pushq	%rax
	testl	%esi, %esi
	je	.LBB187_4
	cmpl	$-2147483648, %edi
	jne	.LBB187_5
	cmpl	$-1, %esi
	je	.LBB187_3
.LBB187_5:
	movl	%edi, %eax
	cltd
	idivl	%esi
	movl	%edx, %eax
	popq	%rcx
	retq
.LBB187_4:
	leaq	str.2(%rip), %rdi
	leaq	.L__unnamed_5(%rip), %rdx
	movl	$57, %esi
	callq	_ZN4core5panic5panic17h6dbea6e1214c1483E@PLT
	ud2
.LBB187_3:
	leaq	str.3(%rip), %rdi
	leaq	.L__unnamed_5(%rip), %rdx
	movl	$48, %esi
	callq	_ZN4core5panic5panic17h6dbea6e1214c1483E@PLT
	ud2
.Lfunc_end187:
	.size	_ZN38_$LT$i32$u20$as$u20$core..ops..Rem$GT$3rem17hbca1e0ca48f450fcE, .Lfunc_end187-_ZN38_$LT$i32$u20$as$u20$core..ops..Rem$GT$3rem17hbca1e0ca48f450fcE

	.section	".text._ZN42_$LT$$RF$i32$u20$as$u20$core..ops..Rem$GT$3rem17ha9dbb9d4d3838f59E","ax",@progbits
	.globl	_ZN42_$LT$$RF$i32$u20$as$u20$core..ops..Rem$GT$3rem17ha9dbb9d4d3838f59E
	.p2align	4, 0x90
	.type	_ZN42_$LT$$RF$i32$u20$as$u20$core..ops..Rem$GT$3rem17ha9dbb9d4d3838f59E,@function
_ZN42_$LT$$RF$i32$u20$as$u20$core..ops..Rem$GT$3rem17ha9dbb9d4d3838f59E:
	pushq	%rax
	movl	(%rsi), %ecx
	testl	%ecx, %ecx
	je	.LBB188_4
	movl	(%rdi), %eax
	cmpl	$-2147483648, %eax
	jne	.LBB188_5
	cmpl	$-1, %ecx
	je	.LBB188_3
.LBB188_5:
	cltd
	idivl	%ecx
	movl	%edx, %eax
	popq	%rcx
	retq
.LBB188_4:
	leaq	str.2(%rip), %rdi
	leaq	.L__unnamed_5(%rip), %rdx
	movl	$57, %esi
	callq	_ZN4core5panic5panic17h6dbea6e1214c1483E@PLT
	ud2
.LBB188_3:
	leaq	str.3(%rip), %rdi
	leaq	.L__unnamed_5(%rip), %rdx
	movl	$48, %esi
	callq	_ZN4core5panic5panic17h6dbea6e1214c1483E@PLT
	ud2
.Lfunc_end188:
	.size	_ZN42_$LT$$RF$i32$u20$as$u20$core..ops..Rem$GT$3rem17ha9dbb9d4d3838f59E, .Lfunc_end188-_ZN42_$LT$$RF$i32$u20$as$u20$core..ops..Rem$GT$3rem17ha9dbb9d4d3838f59E

	.section	".text._ZN38_$LT$i64$u20$as$u20$core..ops..Rem$GT$3rem17ha59b0fe446e302cdE","ax",@progbits
	.globl	_ZN38_$LT$i64$u20$as$u20$core..ops..Rem$GT$3rem17ha59b0fe446e302cdE
	.p2align	4, 0x90
	.type	_ZN38_$LT$i64$u20$as$u20$core..ops..Rem$GT$3rem17ha59b0fe446e302cdE,@function
_ZN38_$LT$i64$u20$as$u20$core..ops..Rem$GT$3rem17ha59b0fe446e302cdE:
	pushq	%rax
	testq	%rsi, %rsi
	je	.LBB189_8
	movabsq	$-9223372036854775808, %rax
	cmpq	%rax, %rdi
	jne	.LBB189_3
	cmpq	$-1, %rsi
	je	.LBB189_7
.LBB189_3:
	movq	%rdi, %rax
	orq	%rsi, %rax
	shrq	$32, %rax
	je	.LBB189_4
	movq	%rdi, %rax
	cqto
	idivq	%rsi
	movq	%rdx, %rax
	popq	%rcx
	retq
.LBB189_4:
	movl	%edi, %eax
	xorl	%edx, %edx
	divl	%esi
	movl	%edx, %eax
	popq	%rcx
	retq
.LBB189_8:
	leaq	str.2(%rip), %rdi
	leaq	.L__unnamed_5(%rip), %rdx
	movl	$57, %esi
	callq	_ZN4core5panic5panic17h6dbea6e1214c1483E@PLT
	ud2
.LBB189_7:
	leaq	str.3(%rip), %rdi
	leaq	.L__unnamed_5(%rip), %rdx
	movl	$48, %esi
	callq	_ZN4core5panic5panic17h6dbea6e1214c1483E@PLT
	ud2
.Lfunc_end189:
	.size	_ZN38_$LT$i64$u20$as$u20$core..ops..Rem$GT$3rem17ha59b0fe446e302cdE, .Lfunc_end189-_ZN38_$LT$i64$u20$as$u20$core..ops..Rem$GT$3rem17ha59b0fe446e302cdE

	.section	".text._ZN42_$LT$$RF$i64$u20$as$u20$core..ops..Rem$GT$3rem17hc3532f51d7c4bb06E","ax",@progbits
	.globl	_ZN42_$LT$$RF$i64$u20$as$u20$core..ops..Rem$GT$3rem17hc3532f51d7c4bb06E
	.p2align	4, 0x90
	.type	_ZN42_$LT$$RF$i64$u20$as$u20$core..ops..Rem$GT$3rem17hc3532f51d7c4bb06E,@function
_ZN42_$LT$$RF$i64$u20$as$u20$core..ops..Rem$GT$3rem17hc3532f51d7c4bb06E:
	pushq	%rax
	movq	(%rsi), %rcx
	testq	%rcx, %rcx
	je	.LBB190_8
	movq	(%rdi), %rax
	movabsq	$-9223372036854775808, %rdx
	cmpq	%rdx, %rax
	jne	.LBB190_3
	cmpq	$-1, %rcx
	je	.LBB190_7
.LBB190_3:
	movq	%rax, %rdx
	orq	%rcx, %rdx
	shrq	$32, %rdx
	je	.LBB190_4
	cqto
	idivq	%rcx
	movq	%rdx, %rax
	popq	%rcx
	retq
.LBB190_4:
	xorl	%edx, %edx
	divl	%ecx
	movl	%edx, %eax
	popq	%rcx
	retq
.LBB190_8:
	leaq	str.2(%rip), %rdi
	leaq	.L__unnamed_5(%rip), %rdx
	movl	$57, %esi
	callq	_ZN4core5panic5panic17h6dbea6e1214c1483E@PLT
	ud2
.LBB190_7:
	leaq	str.3(%rip), %rdi
	leaq	.L__unnamed_5(%rip), %rdx
	movl	$48, %esi
	callq	_ZN4core5panic5panic17h6dbea6e1214c1483E@PLT
	ud2
.Lfunc_end190:
	.size	_ZN42_$LT$$RF$i64$u20$as$u20$core..ops..Rem$GT$3rem17hc3532f51d7c4bb06E, .Lfunc_end190-_ZN42_$LT$$RF$i64$u20$as$u20$core..ops..Rem$GT$3rem17hc3532f51d7c4bb06E

	.section	".text._ZN39_$LT$i128$u20$as$u20$core..ops..Rem$GT$3rem17h43fcd2fceb0abe04E","ax",@progbits
	.globl	_ZN39_$LT$i128$u20$as$u20$core..ops..Rem$GT$3rem17h43fcd2fceb0abe04E
	.p2align	4, 0x90
	.type	_ZN39_$LT$i128$u20$as$u20$core..ops..Rem$GT$3rem17h43fcd2fceb0abe04E,@function
_ZN39_$LT$i128$u20$as$u20$core..ops..Rem$GT$3rem17h43fcd2fceb0abe04E:
	pushq	%rax
	movq	%rdx, %rax
	orq	%rcx, %rax
	je	.LBB191_4
	movabsq	$-9223372036854775808, %rax
	xorq	%rsi, %rax
	orq	%rdi, %rax
	jne	.LBB191_5
	movq	%rdx, %rax
	andq	%rcx, %rax
	cmpq	$-1, %rax
	je	.LBB191_3
.LBB191_5:
	callq	__modti3@PLT
	popq	%rcx
	retq
.LBB191_4:
	leaq	str.2(%rip), %rdi
	leaq	.L__unnamed_5(%rip), %rdx
	movl	$57, %esi
	callq	_ZN4core5panic5panic17h6dbea6e1214c1483E@PLT
	ud2
.LBB191_3:
	leaq	str.3(%rip), %rdi
	leaq	.L__unnamed_5(%rip), %rdx
	movl	$48, %esi
	callq	_ZN4core5panic5panic17h6dbea6e1214c1483E@PLT
	ud2
.Lfunc_end191:
	.size	_ZN39_$LT$i128$u20$as$u20$core..ops..Rem$GT$3rem17h43fcd2fceb0abe04E, .Lfunc_end191-_ZN39_$LT$i128$u20$as$u20$core..ops..Rem$GT$3rem17h43fcd2fceb0abe04E

	.section	".text._ZN43_$LT$$RF$i128$u20$as$u20$core..ops..Rem$GT$3rem17h0cd371d91a5c1c5cE","ax",@progbits
	.globl	_ZN43_$LT$$RF$i128$u20$as$u20$core..ops..Rem$GT$3rem17h0cd371d91a5c1c5cE
	.p2align	4, 0x90
	.type	_ZN43_$LT$$RF$i128$u20$as$u20$core..ops..Rem$GT$3rem17h0cd371d91a5c1c5cE,@function
_ZN43_$LT$$RF$i128$u20$as$u20$core..ops..Rem$GT$3rem17h0cd371d91a5c1c5cE:
	pushq	%rax
	movq	(%rsi), %rdx
	movq	8(%rsi), %rcx
	movq	%rdx, %rsi
	orq	%rcx, %rsi
	je	.LBB192_4
	movq	%rdi, %rax
	movq	(%rdi), %rdi
	movq	8(%rax), %rsi
	movabsq	$-9223372036854775808, %rax
	xorq	%rsi, %rax
	orq	%rdi, %rax
	jne	.LBB192_5
	movq	%rdx, %rax
	andq	%rcx, %rax
	cmpq	$-1, %rax
	je	.LBB192_3
.LBB192_5:
	callq	__modti3@PLT
	popq	%rcx
	retq
.LBB192_4:
	leaq	str.2(%rip), %rdi
	leaq	.L__unnamed_5(%rip), %rdx
	movl	$57, %esi
	callq	_ZN4core5panic5panic17h6dbea6e1214c1483E@PLT
	ud2
.LBB192_3:
	leaq	str.3(%rip), %rdi
	leaq	.L__unnamed_5(%rip), %rdx
	movl	$48, %esi
	callq	_ZN4core5panic5panic17h6dbea6e1214c1483E@PLT
	ud2
.Lfunc_end192:
	.size	_ZN43_$LT$$RF$i128$u20$as$u20$core..ops..Rem$GT$3rem17h0cd371d91a5c1c5cE, .Lfunc_end192-_ZN43_$LT$$RF$i128$u20$as$u20$core..ops..Rem$GT$3rem17h0cd371d91a5c1c5cE

	.section	".text._ZN38_$LT$f32$u20$as$u20$core..ops..Rem$GT$3rem17h6ec6e9ed04f3a420E","ax",@progbits
	.globl	_ZN38_$LT$f32$u20$as$u20$core..ops..Rem$GT$3rem17h6ec6e9ed04f3a420E
	.p2align	4, 0x90
	.type	_ZN38_$LT$f32$u20$as$u20$core..ops..Rem$GT$3rem17h6ec6e9ed04f3a420E,@function
_ZN38_$LT$f32$u20$as$u20$core..ops..Rem$GT$3rem17h6ec6e9ed04f3a420E:
	pushq	%rax
	callq	fmodf@PLT
	popq	%rcx
	retq
.Lfunc_end193:
	.size	_ZN38_$LT$f32$u20$as$u20$core..ops..Rem$GT$3rem17h6ec6e9ed04f3a420E, .Lfunc_end193-_ZN38_$LT$f32$u20$as$u20$core..ops..Rem$GT$3rem17h6ec6e9ed04f3a420E

	.section	".text._ZN42_$LT$$RF$f32$u20$as$u20$core..ops..Rem$GT$3rem17ha92a8ef5ae98db3bE","ax",@progbits
	.globl	_ZN42_$LT$$RF$f32$u20$as$u20$core..ops..Rem$GT$3rem17ha92a8ef5ae98db3bE
	.p2align	4, 0x90
	.type	_ZN42_$LT$$RF$f32$u20$as$u20$core..ops..Rem$GT$3rem17ha92a8ef5ae98db3bE,@function
_ZN42_$LT$$RF$f32$u20$as$u20$core..ops..Rem$GT$3rem17ha92a8ef5ae98db3bE:
	pushq	%rax
	movl	(%rdi), %edi
	movl	(%rsi), %esi
	callq	fmodf@PLT
	popq	%rcx
	retq
.Lfunc_end194:
	.size	_ZN42_$LT$$RF$f32$u20$as$u20$core..ops..Rem$GT$3rem17ha92a8ef5ae98db3bE, .Lfunc_end194-_ZN42_$LT$$RF$f32$u20$as$u20$core..ops..Rem$GT$3rem17ha92a8ef5ae98db3bE

	.section	".text._ZN38_$LT$f64$u20$as$u20$core..ops..Rem$GT$3rem17h6c848ab6b29316d8E","ax",@progbits
	.globl	_ZN38_$LT$f64$u20$as$u20$core..ops..Rem$GT$3rem17h6c848ab6b29316d8E
	.p2align	4, 0x90
	.type	_ZN38_$LT$f64$u20$as$u20$core..ops..Rem$GT$3rem17h6c848ab6b29316d8E,@function
_ZN38_$LT$f64$u20$as$u20$core..ops..Rem$GT$3rem17h6c848ab6b29316d8E:
	pushq	%rax
	callq	fmod@PLT
	popq	%rcx
	retq
.Lfunc_end195:
	.size	_ZN38_$LT$f64$u20$as$u20$core..ops..Rem$GT$3rem17h6c848ab6b29316d8E, .Lfunc_end195-_ZN38_$LT$f64$u20$as$u20$core..ops..Rem$GT$3rem17h6c848ab6b29316d8E

	.section	".text._ZN42_$LT$$RF$f64$u20$as$u20$core..ops..Rem$GT$3rem17hdb7fa706dc3365c2E","ax",@progbits
	.globl	_ZN42_$LT$$RF$f64$u20$as$u20$core..ops..Rem$GT$3rem17hdb7fa706dc3365c2E
	.p2align	4, 0x90
	.type	_ZN42_$LT$$RF$f64$u20$as$u20$core..ops..Rem$GT$3rem17hdb7fa706dc3365c2E,@function
_ZN42_$LT$$RF$f64$u20$as$u20$core..ops..Rem$GT$3rem17hdb7fa706dc3365c2E:
	pushq	%rax
	movq	(%rdi), %rdi
	movq	(%rsi), %rsi
	callq	fmod@PLT
	popq	%rcx
	retq
.Lfunc_end196:
	.size	_ZN42_$LT$$RF$f64$u20$as$u20$core..ops..Rem$GT$3rem17hdb7fa706dc3365c2E, .Lfunc_end196-_ZN42_$LT$$RF$f64$u20$as$u20$core..ops..Rem$GT$3rem17hdb7fa706dc3365c2E

	.section	".text._ZN41_$LT$bool$u20$as$u20$core..ops..BitOr$GT$5bitor17he2a357f3c92739f3E","ax",@progbits
	.globl	_ZN41_$LT$bool$u20$as$u20$core..ops..BitOr$GT$5bitor17he2a357f3c92739f3E
	.p2align	4, 0x90
	.type	_ZN41_$LT$bool$u20$as$u20$core..ops..BitOr$GT$5bitor17he2a357f3c92739f3E,@function
_ZN41_$LT$bool$u20$as$u20$core..ops..BitOr$GT$5bitor17he2a357f3c92739f3E:
	movl	%edi, %eax
	orl	%esi, %eax
	retq
.Lfunc_end197:
	.size	_ZN41_$LT$bool$u20$as$u20$core..ops..BitOr$GT$5bitor17he2a357f3c92739f3E, .Lfunc_end197-_ZN41_$LT$bool$u20$as$u20$core..ops..BitOr$GT$5bitor17he2a357f3c92739f3E

	.section	".text._ZN45_$LT$$RF$bool$u20$as$u20$core..ops..BitOr$GT$5bitor17h1f7625a9d65414e4E","ax",@progbits
	.globl	_ZN45_$LT$$RF$bool$u20$as$u20$core..ops..BitOr$GT$5bitor17h1f7625a9d65414e4E
	.p2align	4, 0x90
	.type	_ZN45_$LT$$RF$bool$u20$as$u20$core..ops..BitOr$GT$5bitor17h1f7625a9d65414e4E,@function
_ZN45_$LT$$RF$bool$u20$as$u20$core..ops..BitOr$GT$5bitor17h1f7625a9d65414e4E:
	movb	(%rsi), %al
	orb	(%rdi), %al
	retq
.Lfunc_end198:
	.size	_ZN45_$LT$$RF$bool$u20$as$u20$core..ops..BitOr$GT$5bitor17h1f7625a9d65414e4E, .Lfunc_end198-_ZN45_$LT$$RF$bool$u20$as$u20$core..ops..BitOr$GT$5bitor17h1f7625a9d65414e4E

	.section	".text._ZN39_$LT$i8$u20$as$u20$core..ops..BitOr$GT$5bitor17hcb8033c95fb2b810E","ax",@progbits
	.globl	_ZN39_$LT$i8$u20$as$u20$core..ops..BitOr$GT$5bitor17hcb8033c95fb2b810E
	.p2align	4, 0x90
	.type	_ZN39_$LT$i8$u20$as$u20$core..ops..BitOr$GT$5bitor17hcb8033c95fb2b810E,@function
_ZN39_$LT$i8$u20$as$u20$core..ops..BitOr$GT$5bitor17hcb8033c95fb2b810E:
	movl	%edi, %eax
	orl	%esi, %eax
	retq
.Lfunc_end199:
	.size	_ZN39_$LT$i8$u20$as$u20$core..ops..BitOr$GT$5bitor17hcb8033c95fb2b810E, .Lfunc_end199-_ZN39_$LT$i8$u20$as$u20$core..ops..BitOr$GT$5bitor17hcb8033c95fb2b810E

	.section	".text._ZN43_$LT$$RF$i8$u20$as$u20$core..ops..BitOr$GT$5bitor17hb17d4620aea9fddeE","ax",@progbits
	.globl	_ZN43_$LT$$RF$i8$u20$as$u20$core..ops..BitOr$GT$5bitor17hb17d4620aea9fddeE
	.p2align	4, 0x90
	.type	_ZN43_$LT$$RF$i8$u20$as$u20$core..ops..BitOr$GT$5bitor17hb17d4620aea9fddeE,@function
_ZN43_$LT$$RF$i8$u20$as$u20$core..ops..BitOr$GT$5bitor17hb17d4620aea9fddeE:
	movb	(%rsi), %al
	orb	(%rdi), %al
	retq
.Lfunc_end200:
	.size	_ZN43_$LT$$RF$i8$u20$as$u20$core..ops..BitOr$GT$5bitor17hb17d4620aea9fddeE, .Lfunc_end200-_ZN43_$LT$$RF$i8$u20$as$u20$core..ops..BitOr$GT$5bitor17hb17d4620aea9fddeE

	.section	".text._ZN40_$LT$i16$u20$as$u20$core..ops..BitOr$GT$5bitor17hf12dbe50d3866bb0E","ax",@progbits
	.globl	_ZN40_$LT$i16$u20$as$u20$core..ops..BitOr$GT$5bitor17hf12dbe50d3866bb0E
	.p2align	4, 0x90
	.type	_ZN40_$LT$i16$u20$as$u20$core..ops..BitOr$GT$5bitor17hf12dbe50d3866bb0E,@function
_ZN40_$LT$i16$u20$as$u20$core..ops..BitOr$GT$5bitor17hf12dbe50d3866bb0E:
	movl	%edi, %eax
	orl	%esi, %eax
	retq
.Lfunc_end201:
	.size	_ZN40_$LT$i16$u20$as$u20$core..ops..BitOr$GT$5bitor17hf12dbe50d3866bb0E, .Lfunc_end201-_ZN40_$LT$i16$u20$as$u20$core..ops..BitOr$GT$5bitor17hf12dbe50d3866bb0E

	.section	".text._ZN44_$LT$$RF$i16$u20$as$u20$core..ops..BitOr$GT$5bitor17ha386b4907a2183beE","ax",@progbits
	.globl	_ZN44_$LT$$RF$i16$u20$as$u20$core..ops..BitOr$GT$5bitor17ha386b4907a2183beE
	.p2align	4, 0x90
	.type	_ZN44_$LT$$RF$i16$u20$as$u20$core..ops..BitOr$GT$5bitor17ha386b4907a2183beE,@function
_ZN44_$LT$$RF$i16$u20$as$u20$core..ops..BitOr$GT$5bitor17ha386b4907a2183beE:
	movzwl	(%rsi), %eax
	orw	(%rdi), %ax
	retq
.Lfunc_end202:
	.size	_ZN44_$LT$$RF$i16$u20$as$u20$core..ops..BitOr$GT$5bitor17ha386b4907a2183beE, .Lfunc_end202-_ZN44_$LT$$RF$i16$u20$as$u20$core..ops..BitOr$GT$5bitor17ha386b4907a2183beE

	.section	".text._ZN40_$LT$i32$u20$as$u20$core..ops..BitOr$GT$5bitor17h680fcee5b6ea2af9E","ax",@progbits
	.globl	_ZN40_$LT$i32$u20$as$u20$core..ops..BitOr$GT$5bitor17h680fcee5b6ea2af9E
	.p2align	4, 0x90
	.type	_ZN40_$LT$i32$u20$as$u20$core..ops..BitOr$GT$5bitor17h680fcee5b6ea2af9E,@function
_ZN40_$LT$i32$u20$as$u20$core..ops..BitOr$GT$5bitor17h680fcee5b6ea2af9E:
	movl	%edi, %eax
	orl	%esi, %eax
	retq
.Lfunc_end203:
	.size	_ZN40_$LT$i32$u20$as$u20$core..ops..BitOr$GT$5bitor17h680fcee5b6ea2af9E, .Lfunc_end203-_ZN40_$LT$i32$u20$as$u20$core..ops..BitOr$GT$5bitor17h680fcee5b6ea2af9E

	.section	".text._ZN44_$LT$$RF$i32$u20$as$u20$core..ops..BitOr$GT$5bitor17h3e9d239c567ceb5fE","ax",@progbits
	.globl	_ZN44_$LT$$RF$i32$u20$as$u20$core..ops..BitOr$GT$5bitor17h3e9d239c567ceb5fE
	.p2align	4, 0x90
	.type	_ZN44_$LT$$RF$i32$u20$as$u20$core..ops..BitOr$GT$5bitor17h3e9d239c567ceb5fE,@function
_ZN44_$LT$$RF$i32$u20$as$u20$core..ops..BitOr$GT$5bitor17h3e9d239c567ceb5fE:
	movl	(%rsi), %eax
	orl	(%rdi), %eax
	retq
.Lfunc_end204:
	.size	_ZN44_$LT$$RF$i32$u20$as$u20$core..ops..BitOr$GT$5bitor17h3e9d239c567ceb5fE, .Lfunc_end204-_ZN44_$LT$$RF$i32$u20$as$u20$core..ops..BitOr$GT$5bitor17h3e9d239c567ceb5fE

	.section	".text._ZN40_$LT$i64$u20$as$u20$core..ops..BitOr$GT$5bitor17hb169c63a4210f27bE","ax",@progbits
	.globl	_ZN40_$LT$i64$u20$as$u20$core..ops..BitOr$GT$5bitor17hb169c63a4210f27bE
	.p2align	4, 0x90
	.type	_ZN40_$LT$i64$u20$as$u20$core..ops..BitOr$GT$5bitor17hb169c63a4210f27bE,@function
_ZN40_$LT$i64$u20$as$u20$core..ops..BitOr$GT$5bitor17hb169c63a4210f27bE:
	movq	%rdi, %rax
	orq	%rsi, %rax
	retq
.Lfunc_end205:
	.size	_ZN40_$LT$i64$u20$as$u20$core..ops..BitOr$GT$5bitor17hb169c63a4210f27bE, .Lfunc_end205-_ZN40_$LT$i64$u20$as$u20$core..ops..BitOr$GT$5bitor17hb169c63a4210f27bE

	.section	".text._ZN44_$LT$$RF$i64$u20$as$u20$core..ops..BitOr$GT$5bitor17hfe9e86d8c7100eb6E","ax",@progbits
	.globl	_ZN44_$LT$$RF$i64$u20$as$u20$core..ops..BitOr$GT$5bitor17hfe9e86d8c7100eb6E
	.p2align	4, 0x90
	.type	_ZN44_$LT$$RF$i64$u20$as$u20$core..ops..BitOr$GT$5bitor17hfe9e86d8c7100eb6E,@function
_ZN44_$LT$$RF$i64$u20$as$u20$core..ops..BitOr$GT$5bitor17hfe9e86d8c7100eb6E:
	movq	(%rsi), %rax
	orq	(%rdi), %rax
	retq
.Lfunc_end206:
	.size	_ZN44_$LT$$RF$i64$u20$as$u20$core..ops..BitOr$GT$5bitor17hfe9e86d8c7100eb6E, .Lfunc_end206-_ZN44_$LT$$RF$i64$u20$as$u20$core..ops..BitOr$GT$5bitor17hfe9e86d8c7100eb6E

	.section	".text._ZN41_$LT$i128$u20$as$u20$core..ops..BitOr$GT$5bitor17h1dcf0e75073fee3bE","ax",@progbits
	.globl	_ZN41_$LT$i128$u20$as$u20$core..ops..BitOr$GT$5bitor17h1dcf0e75073fee3bE
	.p2align	4, 0x90
	.type	_ZN41_$LT$i128$u20$as$u20$core..ops..BitOr$GT$5bitor17h1dcf0e75073fee3bE,@function
_ZN41_$LT$i128$u20$as$u20$core..ops..BitOr$GT$5bitor17h1dcf0e75073fee3bE:
	movq	%rdi, %rax
	orq	%rdx, %rax
	orq	%rcx, %rsi
	movq	%rsi, %rdx
	retq
.Lfunc_end207:
	.size	_ZN41_$LT$i128$u20$as$u20$core..ops..BitOr$GT$5bitor17h1dcf0e75073fee3bE, .Lfunc_end207-_ZN41_$LT$i128$u20$as$u20$core..ops..BitOr$GT$5bitor17h1dcf0e75073fee3bE

	.section	".text._ZN45_$LT$$RF$i128$u20$as$u20$core..ops..BitOr$GT$5bitor17h817f483197142852E","ax",@progbits
	.globl	_ZN45_$LT$$RF$i128$u20$as$u20$core..ops..BitOr$GT$5bitor17h817f483197142852E
	.p2align	4, 0x90
	.type	_ZN45_$LT$$RF$i128$u20$as$u20$core..ops..BitOr$GT$5bitor17h817f483197142852E,@function
_ZN45_$LT$$RF$i128$u20$as$u20$core..ops..BitOr$GT$5bitor17h817f483197142852E:
	movq	(%rsi), %rax
	movq	8(%rsi), %rdx
	orq	(%rdi), %rax
	orq	8(%rdi), %rdx
	retq
.Lfunc_end208:
	.size	_ZN45_$LT$$RF$i128$u20$as$u20$core..ops..BitOr$GT$5bitor17h817f483197142852E, .Lfunc_end208-_ZN45_$LT$$RF$i128$u20$as$u20$core..ops..BitOr$GT$5bitor17h817f483197142852E

	.section	".text._ZN42_$LT$bool$u20$as$u20$core..ops..BitAnd$GT$6bitand17haf37ea6732892298E","ax",@progbits
	.globl	_ZN42_$LT$bool$u20$as$u20$core..ops..BitAnd$GT$6bitand17haf37ea6732892298E
	.p2align	4, 0x90
	.type	_ZN42_$LT$bool$u20$as$u20$core..ops..BitAnd$GT$6bitand17haf37ea6732892298E,@function
_ZN42_$LT$bool$u20$as$u20$core..ops..BitAnd$GT$6bitand17haf37ea6732892298E:
	movl	%edi, %eax
	andl	%esi, %eax
	retq
.Lfunc_end209:
	.size	_ZN42_$LT$bool$u20$as$u20$core..ops..BitAnd$GT$6bitand17haf37ea6732892298E, .Lfunc_end209-_ZN42_$LT$bool$u20$as$u20$core..ops..BitAnd$GT$6bitand17haf37ea6732892298E

	.section	".text._ZN46_$LT$$RF$bool$u20$as$u20$core..ops..BitAnd$GT$6bitand17h2f5bec0dee1259dfE","ax",@progbits
	.globl	_ZN46_$LT$$RF$bool$u20$as$u20$core..ops..BitAnd$GT$6bitand17h2f5bec0dee1259dfE
	.p2align	4, 0x90
	.type	_ZN46_$LT$$RF$bool$u20$as$u20$core..ops..BitAnd$GT$6bitand17h2f5bec0dee1259dfE,@function
_ZN46_$LT$$RF$bool$u20$as$u20$core..ops..BitAnd$GT$6bitand17h2f5bec0dee1259dfE:
	cmpb	$0, (%rdi)
	setne	%cl
	cmpb	$0, (%rsi)
	setne	%al
	andb	%cl, %al
	retq
.Lfunc_end210:
	.size	_ZN46_$LT$$RF$bool$u20$as$u20$core..ops..BitAnd$GT$6bitand17h2f5bec0dee1259dfE, .Lfunc_end210-_ZN46_$LT$$RF$bool$u20$as$u20$core..ops..BitAnd$GT$6bitand17h2f5bec0dee1259dfE

	.section	".text._ZN40_$LT$i8$u20$as$u20$core..ops..BitAnd$GT$6bitand17h372e3b47db1013feE","ax",@progbits
	.globl	_ZN40_$LT$i8$u20$as$u20$core..ops..BitAnd$GT$6bitand17h372e3b47db1013feE
	.p2align	4, 0x90
	.type	_ZN40_$LT$i8$u20$as$u20$core..ops..BitAnd$GT$6bitand17h372e3b47db1013feE,@function
_ZN40_$LT$i8$u20$as$u20$core..ops..BitAnd$GT$6bitand17h372e3b47db1013feE:
	movl	%edi, %eax
	andl	%esi, %eax
	retq
.Lfunc_end211:
	.size	_ZN40_$LT$i8$u20$as$u20$core..ops..BitAnd$GT$6bitand17h372e3b47db1013feE, .Lfunc_end211-_ZN40_$LT$i8$u20$as$u20$core..ops..BitAnd$GT$6bitand17h372e3b47db1013feE

	.section	".text._ZN44_$LT$$RF$i8$u20$as$u20$core..ops..BitAnd$GT$6bitand17h5fff5c0325c69f74E","ax",@progbits
	.globl	_ZN44_$LT$$RF$i8$u20$as$u20$core..ops..BitAnd$GT$6bitand17h5fff5c0325c69f74E
	.p2align	4, 0x90
	.type	_ZN44_$LT$$RF$i8$u20$as$u20$core..ops..BitAnd$GT$6bitand17h5fff5c0325c69f74E,@function
_ZN44_$LT$$RF$i8$u20$as$u20$core..ops..BitAnd$GT$6bitand17h5fff5c0325c69f74E:
	movb	(%rsi), %al
	andb	(%rdi), %al
	retq
.Lfunc_end212:
	.size	_ZN44_$LT$$RF$i8$u20$as$u20$core..ops..BitAnd$GT$6bitand17h5fff5c0325c69f74E, .Lfunc_end212-_ZN44_$LT$$RF$i8$u20$as$u20$core..ops..BitAnd$GT$6bitand17h5fff5c0325c69f74E

	.section	".text._ZN41_$LT$i16$u20$as$u20$core..ops..BitAnd$GT$6bitand17hb069a50fd9bf7e8fE","ax",@progbits
	.globl	_ZN41_$LT$i16$u20$as$u20$core..ops..BitAnd$GT$6bitand17hb069a50fd9bf7e8fE
	.p2align	4, 0x90
	.type	_ZN41_$LT$i16$u20$as$u20$core..ops..BitAnd$GT$6bitand17hb069a50fd9bf7e8fE,@function
_ZN41_$LT$i16$u20$as$u20$core..ops..BitAnd$GT$6bitand17hb069a50fd9bf7e8fE:
	movl	%edi, %eax
	andl	%esi, %eax
	retq
.Lfunc_end213:
	.size	_ZN41_$LT$i16$u20$as$u20$core..ops..BitAnd$GT$6bitand17hb069a50fd9bf7e8fE, .Lfunc_end213-_ZN41_$LT$i16$u20$as$u20$core..ops..BitAnd$GT$6bitand17hb069a50fd9bf7e8fE

	.section	".text._ZN45_$LT$$RF$i16$u20$as$u20$core..ops..BitAnd$GT$6bitand17h02cf8a2d014f76ffE","ax",@progbits
	.globl	_ZN45_$LT$$RF$i16$u20$as$u20$core..ops..BitAnd$GT$6bitand17h02cf8a2d014f76ffE
	.p2align	4, 0x90
	.type	_ZN45_$LT$$RF$i16$u20$as$u20$core..ops..BitAnd$GT$6bitand17h02cf8a2d014f76ffE,@function
_ZN45_$LT$$RF$i16$u20$as$u20$core..ops..BitAnd$GT$6bitand17h02cf8a2d014f76ffE:
	movzwl	(%rsi), %eax
	andw	(%rdi), %ax
	retq
.Lfunc_end214:
	.size	_ZN45_$LT$$RF$i16$u20$as$u20$core..ops..BitAnd$GT$6bitand17h02cf8a2d014f76ffE, .Lfunc_end214-_ZN45_$LT$$RF$i16$u20$as$u20$core..ops..BitAnd$GT$6bitand17h02cf8a2d014f76ffE

	.section	".text._ZN41_$LT$i32$u20$as$u20$core..ops..BitAnd$GT$6bitand17hb0d28d48d002271dE","ax",@progbits
	.globl	_ZN41_$LT$i32$u20$as$u20$core..ops..BitAnd$GT$6bitand17hb0d28d48d002271dE
	.p2align	4, 0x90
	.type	_ZN41_$LT$i32$u20$as$u20$core..ops..BitAnd$GT$6bitand17hb0d28d48d002271dE,@function
_ZN41_$LT$i32$u20$as$u20$core..ops..BitAnd$GT$6bitand17hb0d28d48d002271dE:
	movl	%edi, %eax
	andl	%esi, %eax
	retq
.Lfunc_end215:
	.size	_ZN41_$LT$i32$u20$as$u20$core..ops..BitAnd$GT$6bitand17hb0d28d48d002271dE, .Lfunc_end215-_ZN41_$LT$i32$u20$as$u20$core..ops..BitAnd$GT$6bitand17hb0d28d48d002271dE

	.section	".text._ZN45_$LT$$RF$i32$u20$as$u20$core..ops..BitAnd$GT$6bitand17hc2bb4c724002afd8E","ax",@progbits
	.globl	_ZN45_$LT$$RF$i32$u20$as$u20$core..ops..BitAnd$GT$6bitand17hc2bb4c724002afd8E
	.p2align	4, 0x90
	.type	_ZN45_$LT$$RF$i32$u20$as$u20$core..ops..BitAnd$GT$6bitand17hc2bb4c724002afd8E,@function
_ZN45_$LT$$RF$i32$u20$as$u20$core..ops..BitAnd$GT$6bitand17hc2bb4c724002afd8E:
	movl	(%rsi), %eax
	andl	(%rdi), %eax
	retq
.Lfunc_end216:
	.size	_ZN45_$LT$$RF$i32$u20$as$u20$core..ops..BitAnd$GT$6bitand17hc2bb4c724002afd8E, .Lfunc_end216-_ZN45_$LT$$RF$i32$u20$as$u20$core..ops..BitAnd$GT$6bitand17hc2bb4c724002afd8E

	.section	".text._ZN41_$LT$i64$u20$as$u20$core..ops..BitAnd$GT$6bitand17ha8c77cefc7a9e442E","ax",@progbits
	.globl	_ZN41_$LT$i64$u20$as$u20$core..ops..BitAnd$GT$6bitand17ha8c77cefc7a9e442E
	.p2align	4, 0x90
	.type	_ZN41_$LT$i64$u20$as$u20$core..ops..BitAnd$GT$6bitand17ha8c77cefc7a9e442E,@function
_ZN41_$LT$i64$u20$as$u20$core..ops..BitAnd$GT$6bitand17ha8c77cefc7a9e442E:
	movq	%rdi, %rax
	andq	%rsi, %rax
	retq
.Lfunc_end217:
	.size	_ZN41_$LT$i64$u20$as$u20$core..ops..BitAnd$GT$6bitand17ha8c77cefc7a9e442E, .Lfunc_end217-_ZN41_$LT$i64$u20$as$u20$core..ops..BitAnd$GT$6bitand17ha8c77cefc7a9e442E

	.section	".text._ZN45_$LT$$RF$i64$u20$as$u20$core..ops..BitAnd$GT$6bitand17h4abcc39538c691f9E","ax",@progbits
	.globl	_ZN45_$LT$$RF$i64$u20$as$u20$core..ops..BitAnd$GT$6bitand17h4abcc39538c691f9E
	.p2align	4, 0x90
	.type	_ZN45_$LT$$RF$i64$u20$as$u20$core..ops..BitAnd$GT$6bitand17h4abcc39538c691f9E,@function
_ZN45_$LT$$RF$i64$u20$as$u20$core..ops..BitAnd$GT$6bitand17h4abcc39538c691f9E:
	movq	(%rsi), %rax
	andq	(%rdi), %rax
	retq
.Lfunc_end218:
	.size	_ZN45_$LT$$RF$i64$u20$as$u20$core..ops..BitAnd$GT$6bitand17h4abcc39538c691f9E, .Lfunc_end218-_ZN45_$LT$$RF$i64$u20$as$u20$core..ops..BitAnd$GT$6bitand17h4abcc39538c691f9E

	.section	".text._ZN42_$LT$i128$u20$as$u20$core..ops..BitAnd$GT$6bitand17hd4790ce503c3433dE","ax",@progbits
	.globl	_ZN42_$LT$i128$u20$as$u20$core..ops..BitAnd$GT$6bitand17hd4790ce503c3433dE
	.p2align	4, 0x90
	.type	_ZN42_$LT$i128$u20$as$u20$core..ops..BitAnd$GT$6bitand17hd4790ce503c3433dE,@function
_ZN42_$LT$i128$u20$as$u20$core..ops..BitAnd$GT$6bitand17hd4790ce503c3433dE:
	movq	%rdi, %rax
	andq	%rdx, %rax
	andq	%rcx, %rsi
	movq	%rsi, %rdx
	retq
.Lfunc_end219:
	.size	_ZN42_$LT$i128$u20$as$u20$core..ops..BitAnd$GT$6bitand17hd4790ce503c3433dE, .Lfunc_end219-_ZN42_$LT$i128$u20$as$u20$core..ops..BitAnd$GT$6bitand17hd4790ce503c3433dE

	.section	".text._ZN46_$LT$$RF$i128$u20$as$u20$core..ops..BitAnd$GT$6bitand17h267ba667b31fbb19E","ax",@progbits
	.globl	_ZN46_$LT$$RF$i128$u20$as$u20$core..ops..BitAnd$GT$6bitand17h267ba667b31fbb19E
	.p2align	4, 0x90
	.type	_ZN46_$LT$$RF$i128$u20$as$u20$core..ops..BitAnd$GT$6bitand17h267ba667b31fbb19E,@function
_ZN46_$LT$$RF$i128$u20$as$u20$core..ops..BitAnd$GT$6bitand17h267ba667b31fbb19E:
	movq	(%rsi), %rax
	movq	8(%rsi), %rdx
	andq	(%rdi), %rax
	andq	8(%rdi), %rdx
	retq
.Lfunc_end220:
	.size	_ZN46_$LT$$RF$i128$u20$as$u20$core..ops..BitAnd$GT$6bitand17h267ba667b31fbb19E, .Lfunc_end220-_ZN46_$LT$$RF$i128$u20$as$u20$core..ops..BitAnd$GT$6bitand17h267ba667b31fbb19E

	.section	".text._ZN42_$LT$bool$u20$as$u20$core..ops..BitXor$GT$6bitxor17hd784168fb980fabdE","ax",@progbits
	.globl	_ZN42_$LT$bool$u20$as$u20$core..ops..BitXor$GT$6bitxor17hd784168fb980fabdE
	.p2align	4, 0x90
	.type	_ZN42_$LT$bool$u20$as$u20$core..ops..BitXor$GT$6bitxor17hd784168fb980fabdE,@function
_ZN42_$LT$bool$u20$as$u20$core..ops..BitXor$GT$6bitxor17hd784168fb980fabdE:
	movl	%edi, %eax
	xorl	%esi, %eax
	retq
.Lfunc_end221:
	.size	_ZN42_$LT$bool$u20$as$u20$core..ops..BitXor$GT$6bitxor17hd784168fb980fabdE, .Lfunc_end221-_ZN42_$LT$bool$u20$as$u20$core..ops..BitXor$GT$6bitxor17hd784168fb980fabdE

	.section	".text._ZN46_$LT$$RF$bool$u20$as$u20$core..ops..BitXor$GT$6bitxor17h191c794804c3184eE","ax",@progbits
	.globl	_ZN46_$LT$$RF$bool$u20$as$u20$core..ops..BitXor$GT$6bitxor17h191c794804c3184eE
	.p2align	4, 0x90
	.type	_ZN46_$LT$$RF$bool$u20$as$u20$core..ops..BitXor$GT$6bitxor17h191c794804c3184eE,@function
_ZN46_$LT$$RF$bool$u20$as$u20$core..ops..BitXor$GT$6bitxor17h191c794804c3184eE:
	cmpb	$0, (%rdi)
	setne	%cl
	cmpb	$0, (%rsi)
	setne	%al
	xorb	%cl, %al
	retq
.Lfunc_end222:
	.size	_ZN46_$LT$$RF$bool$u20$as$u20$core..ops..BitXor$GT$6bitxor17h191c794804c3184eE, .Lfunc_end222-_ZN46_$LT$$RF$bool$u20$as$u20$core..ops..BitXor$GT$6bitxor17h191c794804c3184eE

	.section	".text._ZN40_$LT$i8$u20$as$u20$core..ops..BitXor$GT$6bitxor17h9ee432e833d73140E","ax",@progbits
	.globl	_ZN40_$LT$i8$u20$as$u20$core..ops..BitXor$GT$6bitxor17h9ee432e833d73140E
	.p2align	4, 0x90
	.type	_ZN40_$LT$i8$u20$as$u20$core..ops..BitXor$GT$6bitxor17h9ee432e833d73140E,@function
_ZN40_$LT$i8$u20$as$u20$core..ops..BitXor$GT$6bitxor17h9ee432e833d73140E:
	movl	%edi, %eax
	xorl	%esi, %eax
	retq
.Lfunc_end223:
	.size	_ZN40_$LT$i8$u20$as$u20$core..ops..BitXor$GT$6bitxor17h9ee432e833d73140E, .Lfunc_end223-_ZN40_$LT$i8$u20$as$u20$core..ops..BitXor$GT$6bitxor17h9ee432e833d73140E

	.section	".text._ZN44_$LT$$RF$i8$u20$as$u20$core..ops..BitXor$GT$6bitxor17h7496014419fafc78E","ax",@progbits
	.globl	_ZN44_$LT$$RF$i8$u20$as$u20$core..ops..BitXor$GT$6bitxor17h7496014419fafc78E
	.p2align	4, 0x90
	.type	_ZN44_$LT$$RF$i8$u20$as$u20$core..ops..BitXor$GT$6bitxor17h7496014419fafc78E,@function
_ZN44_$LT$$RF$i8$u20$as$u20$core..ops..BitXor$GT$6bitxor17h7496014419fafc78E:
	movb	(%rsi), %al
	xorb	(%rdi), %al
	retq
.Lfunc_end224:
	.size	_ZN44_$LT$$RF$i8$u20$as$u20$core..ops..BitXor$GT$6bitxor17h7496014419fafc78E, .Lfunc_end224-_ZN44_$LT$$RF$i8$u20$as$u20$core..ops..BitXor$GT$6bitxor17h7496014419fafc78E

	.section	".text._ZN41_$LT$i16$u20$as$u20$core..ops..BitXor$GT$6bitxor17hbd0d853906ef6394E","ax",@progbits
	.globl	_ZN41_$LT$i16$u20$as$u20$core..ops..BitXor$GT$6bitxor17hbd0d853906ef6394E
	.p2align	4, 0x90
	.type	_ZN41_$LT$i16$u20$as$u20$core..ops..BitXor$GT$6bitxor17hbd0d853906ef6394E,@function
_ZN41_$LT$i16$u20$as$u20$core..ops..BitXor$GT$6bitxor17hbd0d853906ef6394E:
	movl	%edi, %eax
	xorl	%esi, %eax
	retq
.Lfunc_end225:
	.size	_ZN41_$LT$i16$u20$as$u20$core..ops..BitXor$GT$6bitxor17hbd0d853906ef6394E, .Lfunc_end225-_ZN41_$LT$i16$u20$as$u20$core..ops..BitXor$GT$6bitxor17hbd0d853906ef6394E

	.section	".text._ZN45_$LT$$RF$i16$u20$as$u20$core..ops..BitXor$GT$6bitxor17h8a3099090a94a06cE","ax",@progbits
	.globl	_ZN45_$LT$$RF$i16$u20$as$u20$core..ops..BitXor$GT$6bitxor17h8a3099090a94a06cE
	.p2align	4, 0x90
	.type	_ZN45_$LT$$RF$i16$u20$as$u20$core..ops..BitXor$GT$6bitxor17h8a3099090a94a06cE,@function
_ZN45_$LT$$RF$i16$u20$as$u20$core..ops..BitXor$GT$6bitxor17h8a3099090a94a06cE:
	movzwl	(%rsi), %eax
	xorw	(%rdi), %ax
	retq
.Lfunc_end226:
	.size	_ZN45_$LT$$RF$i16$u20$as$u20$core..ops..BitXor$GT$6bitxor17h8a3099090a94a06cE, .Lfunc_end226-_ZN45_$LT$$RF$i16$u20$as$u20$core..ops..BitXor$GT$6bitxor17h8a3099090a94a06cE

	.section	".text._ZN41_$LT$i32$u20$as$u20$core..ops..BitXor$GT$6bitxor17h276acd24193f009dE","ax",@progbits
	.globl	_ZN41_$LT$i32$u20$as$u20$core..ops..BitXor$GT$6bitxor17h276acd24193f009dE
	.p2align	4, 0x90
	.type	_ZN41_$LT$i32$u20$as$u20$core..ops..BitXor$GT$6bitxor17h276acd24193f009dE,@function
_ZN41_$LT$i32$u20$as$u20$core..ops..BitXor$GT$6bitxor17h276acd24193f009dE:
	movl	%edi, %eax
	xorl	%esi, %eax
	retq
.Lfunc_end227:
	.size	_ZN41_$LT$i32$u20$as$u20$core..ops..BitXor$GT$6bitxor17h276acd24193f009dE, .Lfunc_end227-_ZN41_$LT$i32$u20$as$u20$core..ops..BitXor$GT$6bitxor17h276acd24193f009dE

	.section	".text._ZN45_$LT$$RF$i32$u20$as$u20$core..ops..BitXor$GT$6bitxor17h1d7db78639405581E","ax",@progbits
	.globl	_ZN45_$LT$$RF$i32$u20$as$u20$core..ops..BitXor$GT$6bitxor17h1d7db78639405581E
	.p2align	4, 0x90
	.type	_ZN45_$LT$$RF$i32$u20$as$u20$core..ops..BitXor$GT$6bitxor17h1d7db78639405581E,@function
_ZN45_$LT$$RF$i32$u20$as$u20$core..ops..BitXor$GT$6bitxor17h1d7db78639405581E:
	movl	(%rsi), %eax
	xorl	(%rdi), %eax
	retq
.Lfunc_end228:
	.size	_ZN45_$LT$$RF$i32$u20$as$u20$core..ops..BitXor$GT$6bitxor17h1d7db78639405581E, .Lfunc_end228-_ZN45_$LT$$RF$i32$u20$as$u20$core..ops..BitXor$GT$6bitxor17h1d7db78639405581E

	.section	".text._ZN41_$LT$i64$u20$as$u20$core..ops..BitXor$GT$6bitxor17hd7674a2c8ad83ea7E","ax",@progbits
	.globl	_ZN41_$LT$i64$u20$as$u20$core..ops..BitXor$GT$6bitxor17hd7674a2c8ad83ea7E
	.p2align	4, 0x90
	.type	_ZN41_$LT$i64$u20$as$u20$core..ops..BitXor$GT$6bitxor17hd7674a2c8ad83ea7E,@function
_ZN41_$LT$i64$u20$as$u20$core..ops..BitXor$GT$6bitxor17hd7674a2c8ad83ea7E:
	movq	%rdi, %rax
	xorq	%rsi, %rax
	retq
.Lfunc_end229:
	.size	_ZN41_$LT$i64$u20$as$u20$core..ops..BitXor$GT$6bitxor17hd7674a2c8ad83ea7E, .Lfunc_end229-_ZN41_$LT$i64$u20$as$u20$core..ops..BitXor$GT$6bitxor17hd7674a2c8ad83ea7E

	.section	".text._ZN45_$LT$$RF$i64$u20$as$u20$core..ops..BitXor$GT$6bitxor17hbb69074b8b1679ddE","ax",@progbits
	.globl	_ZN45_$LT$$RF$i64$u20$as$u20$core..ops..BitXor$GT$6bitxor17hbb69074b8b1679ddE
	.p2align	4, 0x90
	.type	_ZN45_$LT$$RF$i64$u20$as$u20$core..ops..BitXor$GT$6bitxor17hbb69074b8b1679ddE,@function
_ZN45_$LT$$RF$i64$u20$as$u20$core..ops..BitXor$GT$6bitxor17hbb69074b8b1679ddE:
	movq	(%rsi), %rax
	xorq	(%rdi), %rax
	retq
.Lfunc_end230:
	.size	_ZN45_$LT$$RF$i64$u20$as$u20$core..ops..BitXor$GT$6bitxor17hbb69074b8b1679ddE, .Lfunc_end230-_ZN45_$LT$$RF$i64$u20$as$u20$core..ops..BitXor$GT$6bitxor17hbb69074b8b1679ddE

	.section	".text._ZN42_$LT$i128$u20$as$u20$core..ops..BitXor$GT$6bitxor17hfe14d8382ae09bacE","ax",@progbits
	.globl	_ZN42_$LT$i128$u20$as$u20$core..ops..BitXor$GT$6bitxor17hfe14d8382ae09bacE
	.p2align	4, 0x90
	.type	_ZN42_$LT$i128$u20$as$u20$core..ops..BitXor$GT$6bitxor17hfe14d8382ae09bacE,@function
_ZN42_$LT$i128$u20$as$u20$core..ops..BitXor$GT$6bitxor17hfe14d8382ae09bacE:
	movq	%rdi, %rax
	xorq	%rdx, %rax
	xorq	%rcx, %rsi
	movq	%rsi, %rdx
	retq
.Lfunc_end231:
	.size	_ZN42_$LT$i128$u20$as$u20$core..ops..BitXor$GT$6bitxor17hfe14d8382ae09bacE, .Lfunc_end231-_ZN42_$LT$i128$u20$as$u20$core..ops..BitXor$GT$6bitxor17hfe14d8382ae09bacE

	.section	".text._ZN46_$LT$$RF$i128$u20$as$u20$core..ops..BitXor$GT$6bitxor17h9faa47919d6aac07E","ax",@progbits
	.globl	_ZN46_$LT$$RF$i128$u20$as$u20$core..ops..BitXor$GT$6bitxor17h9faa47919d6aac07E
	.p2align	4, 0x90
	.type	_ZN46_$LT$$RF$i128$u20$as$u20$core..ops..BitXor$GT$6bitxor17h9faa47919d6aac07E,@function
_ZN46_$LT$$RF$i128$u20$as$u20$core..ops..BitXor$GT$6bitxor17h9faa47919d6aac07E:
	movq	(%rsi), %rax
	movq	8(%rsi), %rdx
	xorq	(%rdi), %rax
	xorq	8(%rdi), %rdx
	retq
.Lfunc_end232:
	.size	_ZN46_$LT$$RF$i128$u20$as$u20$core..ops..BitXor$GT$6bitxor17h9faa47919d6aac07E, .Lfunc_end232-_ZN46_$LT$$RF$i128$u20$as$u20$core..ops..BitXor$GT$6bitxor17h9faa47919d6aac07E

	.section	".text._ZN37_$LT$i8$u20$as$u20$core..ops..Neg$GT$3neg17hd42e9a3238095c2bE","ax",@progbits
	.globl	_ZN37_$LT$i8$u20$as$u20$core..ops..Neg$GT$3neg17hd42e9a3238095c2bE
	.p2align	4, 0x90
	.type	_ZN37_$LT$i8$u20$as$u20$core..ops..Neg$GT$3neg17hd42e9a3238095c2bE,@function
_ZN37_$LT$i8$u20$as$u20$core..ops..Neg$GT$3neg17hd42e9a3238095c2bE:
	movl	%edi, %eax
	negb	%al
	retq
.Lfunc_end233:
	.size	_ZN37_$LT$i8$u20$as$u20$core..ops..Neg$GT$3neg17hd42e9a3238095c2bE, .Lfunc_end233-_ZN37_$LT$i8$u20$as$u20$core..ops..Neg$GT$3neg17hd42e9a3238095c2bE

	.section	".text._ZN38_$LT$i16$u20$as$u20$core..ops..Neg$GT$3neg17h98db3d5cce6db911E","ax",@progbits
	.globl	_ZN38_$LT$i16$u20$as$u20$core..ops..Neg$GT$3neg17h98db3d5cce6db911E
	.p2align	4, 0x90
	.type	_ZN38_$LT$i16$u20$as$u20$core..ops..Neg$GT$3neg17h98db3d5cce6db911E,@function
_ZN38_$LT$i16$u20$as$u20$core..ops..Neg$GT$3neg17h98db3d5cce6db911E:
	movl	%edi, %eax
	negl	%eax
	retq
.Lfunc_end234:
	.size	_ZN38_$LT$i16$u20$as$u20$core..ops..Neg$GT$3neg17h98db3d5cce6db911E, .Lfunc_end234-_ZN38_$LT$i16$u20$as$u20$core..ops..Neg$GT$3neg17h98db3d5cce6db911E

	.section	".text._ZN38_$LT$i32$u20$as$u20$core..ops..Neg$GT$3neg17h0ffd724a66373a7eE","ax",@progbits
	.globl	_ZN38_$LT$i32$u20$as$u20$core..ops..Neg$GT$3neg17h0ffd724a66373a7eE
	.p2align	4, 0x90
	.type	_ZN38_$LT$i32$u20$as$u20$core..ops..Neg$GT$3neg17h0ffd724a66373a7eE,@function
_ZN38_$LT$i32$u20$as$u20$core..ops..Neg$GT$3neg17h0ffd724a66373a7eE:
	movl	%edi, %eax
	negl	%eax
	retq
.Lfunc_end235:
	.size	_ZN38_$LT$i32$u20$as$u20$core..ops..Neg$GT$3neg17h0ffd724a66373a7eE, .Lfunc_end235-_ZN38_$LT$i32$u20$as$u20$core..ops..Neg$GT$3neg17h0ffd724a66373a7eE

	.section	".text._ZN38_$LT$i64$u20$as$u20$core..ops..Neg$GT$3neg17h177e1f872c3b3db3E","ax",@progbits
	.globl	_ZN38_$LT$i64$u20$as$u20$core..ops..Neg$GT$3neg17h177e1f872c3b3db3E
	.p2align	4, 0x90
	.type	_ZN38_$LT$i64$u20$as$u20$core..ops..Neg$GT$3neg17h177e1f872c3b3db3E,@function
_ZN38_$LT$i64$u20$as$u20$core..ops..Neg$GT$3neg17h177e1f872c3b3db3E:
	movq	%rdi, %rax
	negq	%rax
	retq
.Lfunc_end236:
	.size	_ZN38_$LT$i64$u20$as$u20$core..ops..Neg$GT$3neg17h177e1f872c3b3db3E, .Lfunc_end236-_ZN38_$LT$i64$u20$as$u20$core..ops..Neg$GT$3neg17h177e1f872c3b3db3E

	.section	".text._ZN39_$LT$i128$u20$as$u20$core..ops..Neg$GT$3neg17hfc606530e8da4cf0E","ax",@progbits
	.globl	_ZN39_$LT$i128$u20$as$u20$core..ops..Neg$GT$3neg17hfc606530e8da4cf0E
	.p2align	4, 0x90
	.type	_ZN39_$LT$i128$u20$as$u20$core..ops..Neg$GT$3neg17hfc606530e8da4cf0E,@function
_ZN39_$LT$i128$u20$as$u20$core..ops..Neg$GT$3neg17hfc606530e8da4cf0E:
	movq	%rdi, %rax
	xorl	%edx, %edx
	negq	%rax
	sbbq	%rsi, %rdx
	retq
.Lfunc_end237:
	.size	_ZN39_$LT$i128$u20$as$u20$core..ops..Neg$GT$3neg17hfc606530e8da4cf0E, .Lfunc_end237-_ZN39_$LT$i128$u20$as$u20$core..ops..Neg$GT$3neg17hfc606530e8da4cf0E

	.section	".text._ZN37_$LT$i8$u20$as$u20$core..ops..Not$GT$3not17hddf6e4766e93fda5E","ax",@progbits
	.globl	_ZN37_$LT$i8$u20$as$u20$core..ops..Not$GT$3not17hddf6e4766e93fda5E
	.p2align	4, 0x90
	.type	_ZN37_$LT$i8$u20$as$u20$core..ops..Not$GT$3not17hddf6e4766e93fda5E,@function
_ZN37_$LT$i8$u20$as$u20$core..ops..Not$GT$3not17hddf6e4766e93fda5E:
	movl	%edi, %eax
	notb	%al
	retq
.Lfunc_end238:
	.size	_ZN37_$LT$i8$u20$as$u20$core..ops..Not$GT$3not17hddf6e4766e93fda5E, .Lfunc_end238-_ZN37_$LT$i8$u20$as$u20$core..ops..Not$GT$3not17hddf6e4766e93fda5E

	.section	".text._ZN41_$LT$$RF$i8$u20$as$u20$core..ops..Not$GT$3not17hda121f139ef718e5E","ax",@progbits
	.globl	_ZN41_$LT$$RF$i8$u20$as$u20$core..ops..Not$GT$3not17hda121f139ef718e5E
	.p2align	4, 0x90
	.type	_ZN41_$LT$$RF$i8$u20$as$u20$core..ops..Not$GT$3not17hda121f139ef718e5E,@function
_ZN41_$LT$$RF$i8$u20$as$u20$core..ops..Not$GT$3not17hda121f139ef718e5E:
	movb	(%rdi), %al
	notb	%al
	retq
.Lfunc_end239:
	.size	_ZN41_$LT$$RF$i8$u20$as$u20$core..ops..Not$GT$3not17hda121f139ef718e5E, .Lfunc_end239-_ZN41_$LT$$RF$i8$u20$as$u20$core..ops..Not$GT$3not17hda121f139ef718e5E

	.section	".text._ZN38_$LT$i16$u20$as$u20$core..ops..Not$GT$3not17hdca3691dba40b231E","ax",@progbits
	.globl	_ZN38_$LT$i16$u20$as$u20$core..ops..Not$GT$3not17hdca3691dba40b231E
	.p2align	4, 0x90
	.type	_ZN38_$LT$i16$u20$as$u20$core..ops..Not$GT$3not17hdca3691dba40b231E,@function
_ZN38_$LT$i16$u20$as$u20$core..ops..Not$GT$3not17hdca3691dba40b231E:
	movl	%edi, %eax
	notl	%eax
	retq
.Lfunc_end240:
	.size	_ZN38_$LT$i16$u20$as$u20$core..ops..Not$GT$3not17hdca3691dba40b231E, .Lfunc_end240-_ZN38_$LT$i16$u20$as$u20$core..ops..Not$GT$3not17hdca3691dba40b231E

	.section	".text._ZN42_$LT$$RF$i16$u20$as$u20$core..ops..Not$GT$3not17ha5eac01115f13a49E","ax",@progbits
	.globl	_ZN42_$LT$$RF$i16$u20$as$u20$core..ops..Not$GT$3not17ha5eac01115f13a49E
	.p2align	4, 0x90
	.type	_ZN42_$LT$$RF$i16$u20$as$u20$core..ops..Not$GT$3not17ha5eac01115f13a49E,@function
_ZN42_$LT$$RF$i16$u20$as$u20$core..ops..Not$GT$3not17ha5eac01115f13a49E:
	movzwl	(%rdi), %eax
	notl	%eax
	retq
.Lfunc_end241:
	.size	_ZN42_$LT$$RF$i16$u20$as$u20$core..ops..Not$GT$3not17ha5eac01115f13a49E, .Lfunc_end241-_ZN42_$LT$$RF$i16$u20$as$u20$core..ops..Not$GT$3not17ha5eac01115f13a49E

	.section	".text._ZN38_$LT$i32$u20$as$u20$core..ops..Not$GT$3not17hc53ebdb4b240b918E","ax",@progbits
	.globl	_ZN38_$LT$i32$u20$as$u20$core..ops..Not$GT$3not17hc53ebdb4b240b918E
	.p2align	4, 0x90
	.type	_ZN38_$LT$i32$u20$as$u20$core..ops..Not$GT$3not17hc53ebdb4b240b918E,@function
_ZN38_$LT$i32$u20$as$u20$core..ops..Not$GT$3not17hc53ebdb4b240b918E:
	movl	%edi, %eax
	notl	%eax
	retq
.Lfunc_end242:
	.size	_ZN38_$LT$i32$u20$as$u20$core..ops..Not$GT$3not17hc53ebdb4b240b918E, .Lfunc_end242-_ZN38_$LT$i32$u20$as$u20$core..ops..Not$GT$3not17hc53ebdb4b240b918E

	.section	".text._ZN42_$LT$$RF$i32$u20$as$u20$core..ops..Not$GT$3not17h990a1f6b4e69b352E","ax",@progbits
	.globl	_ZN42_$LT$$RF$i32$u20$as$u20$core..ops..Not$GT$3not17h990a1f6b4e69b352E
	.p2align	4, 0x90
	.type	_ZN42_$LT$$RF$i32$u20$as$u20$core..ops..Not$GT$3not17h990a1f6b4e69b352E,@function
_ZN42_$LT$$RF$i32$u20$as$u20$core..ops..Not$GT$3not17h990a1f6b4e69b352E:
	movl	(%rdi), %eax
	notl	%eax
	retq
.Lfunc_end243:
	.size	_ZN42_$LT$$RF$i32$u20$as$u20$core..ops..Not$GT$3not17h990a1f6b4e69b352E, .Lfunc_end243-_ZN42_$LT$$RF$i32$u20$as$u20$core..ops..Not$GT$3not17h990a1f6b4e69b352E

	.section	".text._ZN38_$LT$i64$u20$as$u20$core..ops..Not$GT$3not17hb84b1b48d2e07ce6E","ax",@progbits
	.globl	_ZN38_$LT$i64$u20$as$u20$core..ops..Not$GT$3not17hb84b1b48d2e07ce6E
	.p2align	4, 0x90
	.type	_ZN38_$LT$i64$u20$as$u20$core..ops..Not$GT$3not17hb84b1b48d2e07ce6E,@function
_ZN38_$LT$i64$u20$as$u20$core..ops..Not$GT$3not17hb84b1b48d2e07ce6E:
	movq	%rdi, %rax
	notq	%rax
	retq
.Lfunc_end244:
	.size	_ZN38_$LT$i64$u20$as$u20$core..ops..Not$GT$3not17hb84b1b48d2e07ce6E, .Lfunc_end244-_ZN38_$LT$i64$u20$as$u20$core..ops..Not$GT$3not17hb84b1b48d2e07ce6E

	.section	".text._ZN42_$LT$$RF$i64$u20$as$u20$core..ops..Not$GT$3not17hd44d3743c2d2b603E","ax",@progbits
	.globl	_ZN42_$LT$$RF$i64$u20$as$u20$core..ops..Not$GT$3not17hd44d3743c2d2b603E
	.p2align	4, 0x90
	.type	_ZN42_$LT$$RF$i64$u20$as$u20$core..ops..Not$GT$3not17hd44d3743c2d2b603E,@function
_ZN42_$LT$$RF$i64$u20$as$u20$core..ops..Not$GT$3not17hd44d3743c2d2b603E:
	movq	(%rdi), %rax
	notq	%rax
	retq
.Lfunc_end245:
	.size	_ZN42_$LT$$RF$i64$u20$as$u20$core..ops..Not$GT$3not17hd44d3743c2d2b603E, .Lfunc_end245-_ZN42_$LT$$RF$i64$u20$as$u20$core..ops..Not$GT$3not17hd44d3743c2d2b603E

	.section	".text._ZN39_$LT$i128$u20$as$u20$core..ops..Not$GT$3not17h2bc6914e74b6bf76E","ax",@progbits
	.globl	_ZN39_$LT$i128$u20$as$u20$core..ops..Not$GT$3not17h2bc6914e74b6bf76E
	.p2align	4, 0x90
	.type	_ZN39_$LT$i128$u20$as$u20$core..ops..Not$GT$3not17h2bc6914e74b6bf76E,@function
_ZN39_$LT$i128$u20$as$u20$core..ops..Not$GT$3not17h2bc6914e74b6bf76E:
	movq	%rsi, %rdx
	movq	%rdi, %rax
	notq	%rax
	notq	%rdx
	retq
.Lfunc_end246:
	.size	_ZN39_$LT$i128$u20$as$u20$core..ops..Not$GT$3not17h2bc6914e74b6bf76E, .Lfunc_end246-_ZN39_$LT$i128$u20$as$u20$core..ops..Not$GT$3not17h2bc6914e74b6bf76E

	.section	".text._ZN43_$LT$$RF$i128$u20$as$u20$core..ops..Not$GT$3not17hff16e47cdd14c64bE","ax",@progbits
	.globl	_ZN43_$LT$$RF$i128$u20$as$u20$core..ops..Not$GT$3not17hff16e47cdd14c64bE
	.p2align	4, 0x90
	.type	_ZN43_$LT$$RF$i128$u20$as$u20$core..ops..Not$GT$3not17hff16e47cdd14c64bE,@function
_ZN43_$LT$$RF$i128$u20$as$u20$core..ops..Not$GT$3not17hff16e47cdd14c64bE:
	movq	(%rdi), %rax
	movq	8(%rdi), %rdx
	notq	%rax
	notq	%rdx
	retq
.Lfunc_end247:
	.size	_ZN43_$LT$$RF$i128$u20$as$u20$core..ops..Not$GT$3not17hff16e47cdd14c64bE, .Lfunc_end247-_ZN43_$LT$$RF$i128$u20$as$u20$core..ops..Not$GT$3not17hff16e47cdd14c64bE

	.section	".text._ZN39_$LT$bool$u20$as$u20$core..ops..Not$GT$3not17h63d587ae432f72d9E","ax",@progbits
	.globl	_ZN39_$LT$bool$u20$as$u20$core..ops..Not$GT$3not17h63d587ae432f72d9E
	.p2align	4, 0x90
	.type	_ZN39_$LT$bool$u20$as$u20$core..ops..Not$GT$3not17h63d587ae432f72d9E,@function
_ZN39_$LT$bool$u20$as$u20$core..ops..Not$GT$3not17h63d587ae432f72d9E:
	movl	%edi, %eax
	xorb	$1, %al
	retq
.Lfunc_end248:
	.size	_ZN39_$LT$bool$u20$as$u20$core..ops..Not$GT$3not17h63d587ae432f72d9E, .Lfunc_end248-_ZN39_$LT$bool$u20$as$u20$core..ops..Not$GT$3not17h63d587ae432f72d9E

	.section	".text._ZN43_$LT$$RF$bool$u20$as$u20$core..ops..Not$GT$3not17hc9c6cf88b4467e18E","ax",@progbits
	.globl	_ZN43_$LT$$RF$bool$u20$as$u20$core..ops..Not$GT$3not17hc9c6cf88b4467e18E
	.p2align	4, 0x90
	.type	_ZN43_$LT$$RF$bool$u20$as$u20$core..ops..Not$GT$3not17hc9c6cf88b4467e18E,@function
_ZN43_$LT$$RF$bool$u20$as$u20$core..ops..Not$GT$3not17hc9c6cf88b4467e18E:
	cmpb	$0, (%rdi)
	sete	%al
	retq
.Lfunc_end249:
	.size	_ZN43_$LT$$RF$bool$u20$as$u20$core..ops..Not$GT$3not17hc9c6cf88b4467e18E, .Lfunc_end249-_ZN43_$LT$$RF$bool$u20$as$u20$core..ops..Not$GT$3not17hc9c6cf88b4467e18E

	.section	".text._ZN37_$LT$u8$u20$as$u20$core..ops..Shr$GT$3shr17h2b437eeec2a57fe8E","ax",@progbits
	.globl	_ZN37_$LT$u8$u20$as$u20$core..ops..Shr$GT$3shr17h2b437eeec2a57fe8E
	.p2align	4, 0x90
	.type	_ZN37_$LT$u8$u20$as$u20$core..ops..Shr$GT$3shr17h2b437eeec2a57fe8E,@function
_ZN37_$LT$u8$u20$as$u20$core..ops..Shr$GT$3shr17h2b437eeec2a57fe8E:
	movl	%esi, %ecx
	movl	%edi, %eax
	andb	$7, %cl
	shrb	%cl, %al
	retq
.Lfunc_end250:
	.size	_ZN37_$LT$u8$u20$as$u20$core..ops..Shr$GT$3shr17h2b437eeec2a57fe8E, .Lfunc_end250-_ZN37_$LT$u8$u20$as$u20$core..ops..Shr$GT$3shr17h2b437eeec2a57fe8E

	.section	".text._ZN48_$LT$u8$u20$as$u20$core..ops..Shr$LT$i16$GT$$GT$3shr17ha8374cff36c100ceE","ax",@progbits
	.globl	_ZN48_$LT$u8$u20$as$u20$core..ops..Shr$LT$i16$GT$$GT$3shr17ha8374cff36c100ceE
	.p2align	4, 0x90
	.type	_ZN48_$LT$u8$u20$as$u20$core..ops..Shr$LT$i16$GT$$GT$3shr17ha8374cff36c100ceE,@function
_ZN48_$LT$u8$u20$as$u20$core..ops..Shr$LT$i16$GT$$GT$3shr17ha8374cff36c100ceE:
	movl	%esi, %ecx
	movl	%edi, %eax
	andb	$7, %cl
	shrb	%cl, %al
	retq
.Lfunc_end251:
	.size	_ZN48_$LT$u8$u20$as$u20$core..ops..Shr$LT$i16$GT$$GT$3shr17ha8374cff36c100ceE, .Lfunc_end251-_ZN48_$LT$u8$u20$as$u20$core..ops..Shr$LT$i16$GT$$GT$3shr17ha8374cff36c100ceE

	.section	".text._ZN48_$LT$u8$u20$as$u20$core..ops..Shr$LT$i32$GT$$GT$3shr17h176d16bde7336cefE","ax",@progbits
	.globl	_ZN48_$LT$u8$u20$as$u20$core..ops..Shr$LT$i32$GT$$GT$3shr17h176d16bde7336cefE
	.p2align	4, 0x90
	.type	_ZN48_$LT$u8$u20$as$u20$core..ops..Shr$LT$i32$GT$$GT$3shr17h176d16bde7336cefE,@function
_ZN48_$LT$u8$u20$as$u20$core..ops..Shr$LT$i32$GT$$GT$3shr17h176d16bde7336cefE:
	movl	%esi, %ecx
	movl	%edi, %eax
	andb	$7, %cl
	shrb	%cl, %al
	retq
.Lfunc_end252:
	.size	_ZN48_$LT$u8$u20$as$u20$core..ops..Shr$LT$i32$GT$$GT$3shr17h176d16bde7336cefE, .Lfunc_end252-_ZN48_$LT$u8$u20$as$u20$core..ops..Shr$LT$i32$GT$$GT$3shr17h176d16bde7336cefE

	.section	".text._ZN48_$LT$u8$u20$as$u20$core..ops..Shr$LT$i64$GT$$GT$3shr17h3e26e42603b13629E","ax",@progbits
	.globl	_ZN48_$LT$u8$u20$as$u20$core..ops..Shr$LT$i64$GT$$GT$3shr17h3e26e42603b13629E
	.p2align	4, 0x90
	.type	_ZN48_$LT$u8$u20$as$u20$core..ops..Shr$LT$i64$GT$$GT$3shr17h3e26e42603b13629E,@function
_ZN48_$LT$u8$u20$as$u20$core..ops..Shr$LT$i64$GT$$GT$3shr17h3e26e42603b13629E:
	movq	%rsi, %rcx
	movl	%edi, %eax
	andb	$7, %cl
	shrb	%cl, %al
	retq
.Lfunc_end253:
	.size	_ZN48_$LT$u8$u20$as$u20$core..ops..Shr$LT$i64$GT$$GT$3shr17h3e26e42603b13629E, .Lfunc_end253-_ZN48_$LT$u8$u20$as$u20$core..ops..Shr$LT$i64$GT$$GT$3shr17h3e26e42603b13629E

	.section	".text._ZN49_$LT$u8$u20$as$u20$core..ops..Shr$LT$i128$GT$$GT$3shr17h11be3fb9e6e691a9E","ax",@progbits
	.globl	_ZN49_$LT$u8$u20$as$u20$core..ops..Shr$LT$i128$GT$$GT$3shr17h11be3fb9e6e691a9E
	.p2align	4, 0x90
	.type	_ZN49_$LT$u8$u20$as$u20$core..ops..Shr$LT$i128$GT$$GT$3shr17h11be3fb9e6e691a9E,@function
_ZN49_$LT$u8$u20$as$u20$core..ops..Shr$LT$i128$GT$$GT$3shr17h11be3fb9e6e691a9E:
	movq	%rsi, %rcx
	movl	%edi, %eax
	andb	$7, %cl
	shrb	%cl, %al
	retq
.Lfunc_end254:
	.size	_ZN49_$LT$u8$u20$as$u20$core..ops..Shr$LT$i128$GT$$GT$3shr17h11be3fb9e6e691a9E, .Lfunc_end254-_ZN49_$LT$u8$u20$as$u20$core..ops..Shr$LT$i128$GT$$GT$3shr17h11be3fb9e6e691a9E

	.section	".text._ZN38_$LT$u16$u20$as$u20$core..ops..Shr$GT$3shr17h5bb0795e4447c6c1E","ax",@progbits
	.globl	_ZN38_$LT$u16$u20$as$u20$core..ops..Shr$GT$3shr17h5bb0795e4447c6c1E
	.p2align	4, 0x90
	.type	_ZN38_$LT$u16$u20$as$u20$core..ops..Shr$GT$3shr17h5bb0795e4447c6c1E,@function
_ZN38_$LT$u16$u20$as$u20$core..ops..Shr$GT$3shr17h5bb0795e4447c6c1E:
	movl	%esi, %ecx
	movzwl	%di, %eax
	andb	$15, %cl
	shrl	%cl, %eax
	retq
.Lfunc_end255:
	.size	_ZN38_$LT$u16$u20$as$u20$core..ops..Shr$GT$3shr17h5bb0795e4447c6c1E, .Lfunc_end255-_ZN38_$LT$u16$u20$as$u20$core..ops..Shr$GT$3shr17h5bb0795e4447c6c1E

	.section	".text._ZN48_$LT$u16$u20$as$u20$core..ops..Shr$LT$i8$GT$$GT$3shr17hf9e06e811b3f2022E","ax",@progbits
	.globl	_ZN48_$LT$u16$u20$as$u20$core..ops..Shr$LT$i8$GT$$GT$3shr17hf9e06e811b3f2022E
	.p2align	4, 0x90
	.type	_ZN48_$LT$u16$u20$as$u20$core..ops..Shr$LT$i8$GT$$GT$3shr17hf9e06e811b3f2022E,@function
_ZN48_$LT$u16$u20$as$u20$core..ops..Shr$LT$i8$GT$$GT$3shr17hf9e06e811b3f2022E:
	movl	%esi, %ecx
	movzwl	%di, %eax
	andb	$15, %cl
	shrl	%cl, %eax
	retq
.Lfunc_end256:
	.size	_ZN48_$LT$u16$u20$as$u20$core..ops..Shr$LT$i8$GT$$GT$3shr17hf9e06e811b3f2022E, .Lfunc_end256-_ZN48_$LT$u16$u20$as$u20$core..ops..Shr$LT$i8$GT$$GT$3shr17hf9e06e811b3f2022E

	.section	".text._ZN49_$LT$u16$u20$as$u20$core..ops..Shr$LT$i32$GT$$GT$3shr17h7a6f968d3919a622E","ax",@progbits
	.globl	_ZN49_$LT$u16$u20$as$u20$core..ops..Shr$LT$i32$GT$$GT$3shr17h7a6f968d3919a622E
	.p2align	4, 0x90
	.type	_ZN49_$LT$u16$u20$as$u20$core..ops..Shr$LT$i32$GT$$GT$3shr17h7a6f968d3919a622E,@function
_ZN49_$LT$u16$u20$as$u20$core..ops..Shr$LT$i32$GT$$GT$3shr17h7a6f968d3919a622E:
	movl	%esi, %ecx
	movzwl	%di, %eax
	andb	$15, %cl
	shrl	%cl, %eax
	retq
.Lfunc_end257:
	.size	_ZN49_$LT$u16$u20$as$u20$core..ops..Shr$LT$i32$GT$$GT$3shr17h7a6f968d3919a622E, .Lfunc_end257-_ZN49_$LT$u16$u20$as$u20$core..ops..Shr$LT$i32$GT$$GT$3shr17h7a6f968d3919a622E

	.section	".text._ZN49_$LT$u16$u20$as$u20$core..ops..Shr$LT$i64$GT$$GT$3shr17h25e9a34f1d93a1e9E","ax",@progbits
	.globl	_ZN49_$LT$u16$u20$as$u20$core..ops..Shr$LT$i64$GT$$GT$3shr17h25e9a34f1d93a1e9E
	.p2align	4, 0x90
	.type	_ZN49_$LT$u16$u20$as$u20$core..ops..Shr$LT$i64$GT$$GT$3shr17h25e9a34f1d93a1e9E,@function
_ZN49_$LT$u16$u20$as$u20$core..ops..Shr$LT$i64$GT$$GT$3shr17h25e9a34f1d93a1e9E:
	movq	%rsi, %rcx
	movzwl	%di, %eax
	andb	$15, %cl
	shrl	%cl, %eax
	retq
.Lfunc_end258:
	.size	_ZN49_$LT$u16$u20$as$u20$core..ops..Shr$LT$i64$GT$$GT$3shr17h25e9a34f1d93a1e9E, .Lfunc_end258-_ZN49_$LT$u16$u20$as$u20$core..ops..Shr$LT$i64$GT$$GT$3shr17h25e9a34f1d93a1e9E

	.section	".text._ZN50_$LT$u16$u20$as$u20$core..ops..Shr$LT$i128$GT$$GT$3shr17h0f0d0cf414ff9c2aE","ax",@progbits
	.globl	_ZN50_$LT$u16$u20$as$u20$core..ops..Shr$LT$i128$GT$$GT$3shr17h0f0d0cf414ff9c2aE
	.p2align	4, 0x90
	.type	_ZN50_$LT$u16$u20$as$u20$core..ops..Shr$LT$i128$GT$$GT$3shr17h0f0d0cf414ff9c2aE,@function
_ZN50_$LT$u16$u20$as$u20$core..ops..Shr$LT$i128$GT$$GT$3shr17h0f0d0cf414ff9c2aE:
	movq	%rsi, %rcx
	movzwl	%di, %eax
	andb	$15, %cl
	shrl	%cl, %eax
	retq
.Lfunc_end259:
	.size	_ZN50_$LT$u16$u20$as$u20$core..ops..Shr$LT$i128$GT$$GT$3shr17h0f0d0cf414ff9c2aE, .Lfunc_end259-_ZN50_$LT$u16$u20$as$u20$core..ops..Shr$LT$i128$GT$$GT$3shr17h0f0d0cf414ff9c2aE

	.section	".text._ZN38_$LT$u32$u20$as$u20$core..ops..Shr$GT$3shr17h801a03b5ce621f69E","ax",@progbits
	.globl	_ZN38_$LT$u32$u20$as$u20$core..ops..Shr$GT$3shr17h801a03b5ce621f69E
	.p2align	4, 0x90
	.type	_ZN38_$LT$u32$u20$as$u20$core..ops..Shr$GT$3shr17h801a03b5ce621f69E,@function
_ZN38_$LT$u32$u20$as$u20$core..ops..Shr$GT$3shr17h801a03b5ce621f69E:
	movl	%esi, %ecx
	movl	%edi, %eax
	shrl	%cl, %eax
	retq
.Lfunc_end260:
	.size	_ZN38_$LT$u32$u20$as$u20$core..ops..Shr$GT$3shr17h801a03b5ce621f69E, .Lfunc_end260-_ZN38_$LT$u32$u20$as$u20$core..ops..Shr$GT$3shr17h801a03b5ce621f69E

	.section	".text._ZN48_$LT$u32$u20$as$u20$core..ops..Shr$LT$i8$GT$$GT$3shr17h18b27ff6b3e8848fE","ax",@progbits
	.globl	_ZN48_$LT$u32$u20$as$u20$core..ops..Shr$LT$i8$GT$$GT$3shr17h18b27ff6b3e8848fE
	.p2align	4, 0x90
	.type	_ZN48_$LT$u32$u20$as$u20$core..ops..Shr$LT$i8$GT$$GT$3shr17h18b27ff6b3e8848fE,@function
_ZN48_$LT$u32$u20$as$u20$core..ops..Shr$LT$i8$GT$$GT$3shr17h18b27ff6b3e8848fE:
	movl	%esi, %ecx
	movl	%edi, %eax
	shrl	%cl, %eax
	retq
.Lfunc_end261:
	.size	_ZN48_$LT$u32$u20$as$u20$core..ops..Shr$LT$i8$GT$$GT$3shr17h18b27ff6b3e8848fE, .Lfunc_end261-_ZN48_$LT$u32$u20$as$u20$core..ops..Shr$LT$i8$GT$$GT$3shr17h18b27ff6b3e8848fE

	.section	".text._ZN49_$LT$u32$u20$as$u20$core..ops..Shr$LT$i16$GT$$GT$3shr17hd3312d451bf6a527E","ax",@progbits
	.globl	_ZN49_$LT$u32$u20$as$u20$core..ops..Shr$LT$i16$GT$$GT$3shr17hd3312d451bf6a527E
	.p2align	4, 0x90
	.type	_ZN49_$LT$u32$u20$as$u20$core..ops..Shr$LT$i16$GT$$GT$3shr17hd3312d451bf6a527E,@function
_ZN49_$LT$u32$u20$as$u20$core..ops..Shr$LT$i16$GT$$GT$3shr17hd3312d451bf6a527E:
	movl	%esi, %ecx
	movl	%edi, %eax
	shrl	%cl, %eax
	retq
.Lfunc_end262:
	.size	_ZN49_$LT$u32$u20$as$u20$core..ops..Shr$LT$i16$GT$$GT$3shr17hd3312d451bf6a527E, .Lfunc_end262-_ZN49_$LT$u32$u20$as$u20$core..ops..Shr$LT$i16$GT$$GT$3shr17hd3312d451bf6a527E

	.section	".text._ZN49_$LT$u32$u20$as$u20$core..ops..Shr$LT$i64$GT$$GT$3shr17h1eedc984dbe002a5E","ax",@progbits
	.globl	_ZN49_$LT$u32$u20$as$u20$core..ops..Shr$LT$i64$GT$$GT$3shr17h1eedc984dbe002a5E
	.p2align	4, 0x90
	.type	_ZN49_$LT$u32$u20$as$u20$core..ops..Shr$LT$i64$GT$$GT$3shr17h1eedc984dbe002a5E,@function
_ZN49_$LT$u32$u20$as$u20$core..ops..Shr$LT$i64$GT$$GT$3shr17h1eedc984dbe002a5E:
	movq	%rsi, %rcx
	movl	%edi, %eax
	shrl	%cl, %eax
	retq
.Lfunc_end263:
	.size	_ZN49_$LT$u32$u20$as$u20$core..ops..Shr$LT$i64$GT$$GT$3shr17h1eedc984dbe002a5E, .Lfunc_end263-_ZN49_$LT$u32$u20$as$u20$core..ops..Shr$LT$i64$GT$$GT$3shr17h1eedc984dbe002a5E

	.section	".text._ZN50_$LT$u32$u20$as$u20$core..ops..Shr$LT$i128$GT$$GT$3shr17h81207c6c54515fdcE","ax",@progbits
	.globl	_ZN50_$LT$u32$u20$as$u20$core..ops..Shr$LT$i128$GT$$GT$3shr17h81207c6c54515fdcE
	.p2align	4, 0x90
	.type	_ZN50_$LT$u32$u20$as$u20$core..ops..Shr$LT$i128$GT$$GT$3shr17h81207c6c54515fdcE,@function
_ZN50_$LT$u32$u20$as$u20$core..ops..Shr$LT$i128$GT$$GT$3shr17h81207c6c54515fdcE:
	movq	%rsi, %rcx
	movl	%edi, %eax
	shrl	%cl, %eax
	retq
.Lfunc_end264:
	.size	_ZN50_$LT$u32$u20$as$u20$core..ops..Shr$LT$i128$GT$$GT$3shr17h81207c6c54515fdcE, .Lfunc_end264-_ZN50_$LT$u32$u20$as$u20$core..ops..Shr$LT$i128$GT$$GT$3shr17h81207c6c54515fdcE

	.section	".text._ZN38_$LT$u64$u20$as$u20$core..ops..Shr$GT$3shr17h134e15dd74e1fccaE","ax",@progbits
	.globl	_ZN38_$LT$u64$u20$as$u20$core..ops..Shr$GT$3shr17h134e15dd74e1fccaE
	.p2align	4, 0x90
	.type	_ZN38_$LT$u64$u20$as$u20$core..ops..Shr$GT$3shr17h134e15dd74e1fccaE,@function
_ZN38_$LT$u64$u20$as$u20$core..ops..Shr$GT$3shr17h134e15dd74e1fccaE:
	movq	%rsi, %rcx
	movq	%rdi, %rax
	shrq	%cl, %rax
	retq
.Lfunc_end265:
	.size	_ZN38_$LT$u64$u20$as$u20$core..ops..Shr$GT$3shr17h134e15dd74e1fccaE, .Lfunc_end265-_ZN38_$LT$u64$u20$as$u20$core..ops..Shr$GT$3shr17h134e15dd74e1fccaE

	.section	".text._ZN48_$LT$u64$u20$as$u20$core..ops..Shr$LT$i8$GT$$GT$3shr17h240f6afcdfe6ae49E","ax",@progbits
	.globl	_ZN48_$LT$u64$u20$as$u20$core..ops..Shr$LT$i8$GT$$GT$3shr17h240f6afcdfe6ae49E
	.p2align	4, 0x90
	.type	_ZN48_$LT$u64$u20$as$u20$core..ops..Shr$LT$i8$GT$$GT$3shr17h240f6afcdfe6ae49E,@function
_ZN48_$LT$u64$u20$as$u20$core..ops..Shr$LT$i8$GT$$GT$3shr17h240f6afcdfe6ae49E:
	movl	%esi, %ecx
	movq	%rdi, %rax
	shrq	%cl, %rax
	retq
.Lfunc_end266:
	.size	_ZN48_$LT$u64$u20$as$u20$core..ops..Shr$LT$i8$GT$$GT$3shr17h240f6afcdfe6ae49E, .Lfunc_end266-_ZN48_$LT$u64$u20$as$u20$core..ops..Shr$LT$i8$GT$$GT$3shr17h240f6afcdfe6ae49E

	.section	".text._ZN49_$LT$u64$u20$as$u20$core..ops..Shr$LT$i16$GT$$GT$3shr17hebd9708b55ee0271E","ax",@progbits
	.globl	_ZN49_$LT$u64$u20$as$u20$core..ops..Shr$LT$i16$GT$$GT$3shr17hebd9708b55ee0271E
	.p2align	4, 0x90
	.type	_ZN49_$LT$u64$u20$as$u20$core..ops..Shr$LT$i16$GT$$GT$3shr17hebd9708b55ee0271E,@function
_ZN49_$LT$u64$u20$as$u20$core..ops..Shr$LT$i16$GT$$GT$3shr17hebd9708b55ee0271E:
	movl	%esi, %ecx
	movq	%rdi, %rax
	shrq	%cl, %rax
	retq
.Lfunc_end267:
	.size	_ZN49_$LT$u64$u20$as$u20$core..ops..Shr$LT$i16$GT$$GT$3shr17hebd9708b55ee0271E, .Lfunc_end267-_ZN49_$LT$u64$u20$as$u20$core..ops..Shr$LT$i16$GT$$GT$3shr17hebd9708b55ee0271E

	.section	".text._ZN49_$LT$u64$u20$as$u20$core..ops..Shr$LT$i32$GT$$GT$3shr17h1ef5af7016ae8cb1E","ax",@progbits
	.globl	_ZN49_$LT$u64$u20$as$u20$core..ops..Shr$LT$i32$GT$$GT$3shr17h1ef5af7016ae8cb1E
	.p2align	4, 0x90
	.type	_ZN49_$LT$u64$u20$as$u20$core..ops..Shr$LT$i32$GT$$GT$3shr17h1ef5af7016ae8cb1E,@function
_ZN49_$LT$u64$u20$as$u20$core..ops..Shr$LT$i32$GT$$GT$3shr17h1ef5af7016ae8cb1E:
	movl	%esi, %ecx
	movq	%rdi, %rax
	shrq	%cl, %rax
	retq
.Lfunc_end268:
	.size	_ZN49_$LT$u64$u20$as$u20$core..ops..Shr$LT$i32$GT$$GT$3shr17h1ef5af7016ae8cb1E, .Lfunc_end268-_ZN49_$LT$u64$u20$as$u20$core..ops..Shr$LT$i32$GT$$GT$3shr17h1ef5af7016ae8cb1E

	.section	".text._ZN50_$LT$u64$u20$as$u20$core..ops..Shr$LT$i128$GT$$GT$3shr17h31deb6dbac145d88E","ax",@progbits
	.globl	_ZN50_$LT$u64$u20$as$u20$core..ops..Shr$LT$i128$GT$$GT$3shr17h31deb6dbac145d88E
	.p2align	4, 0x90
	.type	_ZN50_$LT$u64$u20$as$u20$core..ops..Shr$LT$i128$GT$$GT$3shr17h31deb6dbac145d88E,@function
_ZN50_$LT$u64$u20$as$u20$core..ops..Shr$LT$i128$GT$$GT$3shr17h31deb6dbac145d88E:
	movq	%rsi, %rcx
	movq	%rdi, %rax
	shrq	%cl, %rax
	retq
.Lfunc_end269:
	.size	_ZN50_$LT$u64$u20$as$u20$core..ops..Shr$LT$i128$GT$$GT$3shr17h31deb6dbac145d88E, .Lfunc_end269-_ZN50_$LT$u64$u20$as$u20$core..ops..Shr$LT$i128$GT$$GT$3shr17h31deb6dbac145d88E

	.section	".text._ZN39_$LT$u128$u20$as$u20$core..ops..Shr$GT$3shr17hbd058dedec29c5c9E","ax",@progbits
	.globl	_ZN39_$LT$u128$u20$as$u20$core..ops..Shr$GT$3shr17hbd058dedec29c5c9E
	.p2align	4, 0x90
	.type	_ZN39_$LT$u128$u20$as$u20$core..ops..Shr$GT$3shr17hbd058dedec29c5c9E,@function
_ZN39_$LT$u128$u20$as$u20$core..ops..Shr$GT$3shr17hbd058dedec29c5c9E:
	movq	%rdx, %rcx
	movq	%rdi, %rax
	shrdq	%cl, %rsi, %rax
	shrq	%cl, %rsi
	xorl	%edx, %edx
	testb	$64, %cl
	cmovneq	%rsi, %rax
	cmoveq	%rsi, %rdx
	retq
.Lfunc_end270:
	.size	_ZN39_$LT$u128$u20$as$u20$core..ops..Shr$GT$3shr17hbd058dedec29c5c9E, .Lfunc_end270-_ZN39_$LT$u128$u20$as$u20$core..ops..Shr$GT$3shr17hbd058dedec29c5c9E

	.section	".text._ZN49_$LT$u128$u20$as$u20$core..ops..Shr$LT$i8$GT$$GT$3shr17hfbd21c996c22ed35E","ax",@progbits
	.globl	_ZN49_$LT$u128$u20$as$u20$core..ops..Shr$LT$i8$GT$$GT$3shr17hfbd21c996c22ed35E
	.p2align	4, 0x90
	.type	_ZN49_$LT$u128$u20$as$u20$core..ops..Shr$LT$i8$GT$$GT$3shr17hfbd21c996c22ed35E,@function
_ZN49_$LT$u128$u20$as$u20$core..ops..Shr$LT$i8$GT$$GT$3shr17hfbd21c996c22ed35E:
	movl	%edx, %ecx
	movq	%rdi, %rax
	shrdq	%cl, %rsi, %rax
	shrq	%cl, %rsi
	xorl	%edx, %edx
	testb	$64, %cl
	cmovneq	%rsi, %rax
	cmoveq	%rsi, %rdx
	retq
.Lfunc_end271:
	.size	_ZN49_$LT$u128$u20$as$u20$core..ops..Shr$LT$i8$GT$$GT$3shr17hfbd21c996c22ed35E, .Lfunc_end271-_ZN49_$LT$u128$u20$as$u20$core..ops..Shr$LT$i8$GT$$GT$3shr17hfbd21c996c22ed35E

	.section	".text._ZN50_$LT$u128$u20$as$u20$core..ops..Shr$LT$i16$GT$$GT$3shr17ha156867e2c33ae06E","ax",@progbits
	.globl	_ZN50_$LT$u128$u20$as$u20$core..ops..Shr$LT$i16$GT$$GT$3shr17ha156867e2c33ae06E
	.p2align	4, 0x90
	.type	_ZN50_$LT$u128$u20$as$u20$core..ops..Shr$LT$i16$GT$$GT$3shr17ha156867e2c33ae06E,@function
_ZN50_$LT$u128$u20$as$u20$core..ops..Shr$LT$i16$GT$$GT$3shr17ha156867e2c33ae06E:
	movl	%edx, %ecx
	movq	%rdi, %rax
	shrdq	%cl, %rsi, %rax
	shrq	%cl, %rsi
	xorl	%edx, %edx
	testb	$64, %cl
	cmovneq	%rsi, %rax
	cmoveq	%rsi, %rdx
	retq
.Lfunc_end272:
	.size	_ZN50_$LT$u128$u20$as$u20$core..ops..Shr$LT$i16$GT$$GT$3shr17ha156867e2c33ae06E, .Lfunc_end272-_ZN50_$LT$u128$u20$as$u20$core..ops..Shr$LT$i16$GT$$GT$3shr17ha156867e2c33ae06E

	.section	".text._ZN50_$LT$u128$u20$as$u20$core..ops..Shr$LT$i32$GT$$GT$3shr17h93d57f141f83ea57E","ax",@progbits
	.globl	_ZN50_$LT$u128$u20$as$u20$core..ops..Shr$LT$i32$GT$$GT$3shr17h93d57f141f83ea57E
	.p2align	4, 0x90
	.type	_ZN50_$LT$u128$u20$as$u20$core..ops..Shr$LT$i32$GT$$GT$3shr17h93d57f141f83ea57E,@function
_ZN50_$LT$u128$u20$as$u20$core..ops..Shr$LT$i32$GT$$GT$3shr17h93d57f141f83ea57E:
	movl	%edx, %ecx
	movq	%rdi, %rax
	shrdq	%cl, %rsi, %rax
	shrq	%cl, %rsi
	xorl	%edx, %edx
	testb	$64, %cl
	cmovneq	%rsi, %rax
	cmoveq	%rsi, %rdx
	retq
.Lfunc_end273:
	.size	_ZN50_$LT$u128$u20$as$u20$core..ops..Shr$LT$i32$GT$$GT$3shr17h93d57f141f83ea57E, .Lfunc_end273-_ZN50_$LT$u128$u20$as$u20$core..ops..Shr$LT$i32$GT$$GT$3shr17h93d57f141f83ea57E

	.section	".text._ZN50_$LT$u128$u20$as$u20$core..ops..Shr$LT$i64$GT$$GT$3shr17ha5053fcb83a7a9b3E","ax",@progbits
	.globl	_ZN50_$LT$u128$u20$as$u20$core..ops..Shr$LT$i64$GT$$GT$3shr17ha5053fcb83a7a9b3E
	.p2align	4, 0x90
	.type	_ZN50_$LT$u128$u20$as$u20$core..ops..Shr$LT$i64$GT$$GT$3shr17ha5053fcb83a7a9b3E,@function
_ZN50_$LT$u128$u20$as$u20$core..ops..Shr$LT$i64$GT$$GT$3shr17ha5053fcb83a7a9b3E:
	movq	%rdx, %rcx
	movq	%rdi, %rax
	shrdq	%cl, %rsi, %rax
	shrq	%cl, %rsi
	xorl	%edx, %edx
	testb	$64, %cl
	cmovneq	%rsi, %rax
	cmoveq	%rsi, %rdx
	retq
.Lfunc_end274:
	.size	_ZN50_$LT$u128$u20$as$u20$core..ops..Shr$LT$i64$GT$$GT$3shr17ha5053fcb83a7a9b3E, .Lfunc_end274-_ZN50_$LT$u128$u20$as$u20$core..ops..Shr$LT$i64$GT$$GT$3shr17ha5053fcb83a7a9b3E

	.section	".text._ZN37_$LT$i8$u20$as$u20$core..ops..Shr$GT$3shr17h0dc51b7bd79e4ed8E","ax",@progbits
	.globl	_ZN37_$LT$i8$u20$as$u20$core..ops..Shr$GT$3shr17h0dc51b7bd79e4ed8E
	.p2align	4, 0x90
	.type	_ZN37_$LT$i8$u20$as$u20$core..ops..Shr$GT$3shr17h0dc51b7bd79e4ed8E,@function
_ZN37_$LT$i8$u20$as$u20$core..ops..Shr$GT$3shr17h0dc51b7bd79e4ed8E:
	movl	%esi, %ecx
	movl	%edi, %eax
	andb	$7, %cl
	sarb	%cl, %al
	retq
.Lfunc_end275:
	.size	_ZN37_$LT$i8$u20$as$u20$core..ops..Shr$GT$3shr17h0dc51b7bd79e4ed8E, .Lfunc_end275-_ZN37_$LT$i8$u20$as$u20$core..ops..Shr$GT$3shr17h0dc51b7bd79e4ed8E

	.section	".text._ZN37_$LT$i8$u20$as$u20$core..ops..Shl$GT$3shl17hf27a59dd8421cb85E","ax",@progbits
	.globl	_ZN37_$LT$i8$u20$as$u20$core..ops..Shl$GT$3shl17hf27a59dd8421cb85E
	.p2align	4, 0x90
	.type	_ZN37_$LT$i8$u20$as$u20$core..ops..Shl$GT$3shl17hf27a59dd8421cb85E,@function
_ZN37_$LT$i8$u20$as$u20$core..ops..Shl$GT$3shl17hf27a59dd8421cb85E:
	movl	%esi, %ecx
	movl	%edi, %eax
	andb	$7, %cl
	shlb	%cl, %al
	retq
.Lfunc_end276:
	.size	_ZN37_$LT$i8$u20$as$u20$core..ops..Shl$GT$3shl17hf27a59dd8421cb85E, .Lfunc_end276-_ZN37_$LT$i8$u20$as$u20$core..ops..Shl$GT$3shl17hf27a59dd8421cb85E

	.section	".text._ZN48_$LT$i8$u20$as$u20$core..ops..Shr$LT$i16$GT$$GT$3shr17h72467afe0c552bc8E","ax",@progbits
	.globl	_ZN48_$LT$i8$u20$as$u20$core..ops..Shr$LT$i16$GT$$GT$3shr17h72467afe0c552bc8E
	.p2align	4, 0x90
	.type	_ZN48_$LT$i8$u20$as$u20$core..ops..Shr$LT$i16$GT$$GT$3shr17h72467afe0c552bc8E,@function
_ZN48_$LT$i8$u20$as$u20$core..ops..Shr$LT$i16$GT$$GT$3shr17h72467afe0c552bc8E:
	movl	%esi, %ecx
	movl	%edi, %eax
	andb	$7, %cl
	sarb	%cl, %al
	retq
.Lfunc_end277:
	.size	_ZN48_$LT$i8$u20$as$u20$core..ops..Shr$LT$i16$GT$$GT$3shr17h72467afe0c552bc8E, .Lfunc_end277-_ZN48_$LT$i8$u20$as$u20$core..ops..Shr$LT$i16$GT$$GT$3shr17h72467afe0c552bc8E

	.section	".text._ZN48_$LT$i8$u20$as$u20$core..ops..Shl$LT$i16$GT$$GT$3shl17he1f16b4d4fa55055E","ax",@progbits
	.globl	_ZN48_$LT$i8$u20$as$u20$core..ops..Shl$LT$i16$GT$$GT$3shl17he1f16b4d4fa55055E
	.p2align	4, 0x90
	.type	_ZN48_$LT$i8$u20$as$u20$core..ops..Shl$LT$i16$GT$$GT$3shl17he1f16b4d4fa55055E,@function
_ZN48_$LT$i8$u20$as$u20$core..ops..Shl$LT$i16$GT$$GT$3shl17he1f16b4d4fa55055E:
	movl	%esi, %ecx
	movl	%edi, %eax
	andb	$7, %cl
	shlb	%cl, %al
	retq
.Lfunc_end278:
	.size	_ZN48_$LT$i8$u20$as$u20$core..ops..Shl$LT$i16$GT$$GT$3shl17he1f16b4d4fa55055E, .Lfunc_end278-_ZN48_$LT$i8$u20$as$u20$core..ops..Shl$LT$i16$GT$$GT$3shl17he1f16b4d4fa55055E

	.section	".text._ZN48_$LT$i8$u20$as$u20$core..ops..Shr$LT$i32$GT$$GT$3shr17h70dc288ecc5c9068E","ax",@progbits
	.globl	_ZN48_$LT$i8$u20$as$u20$core..ops..Shr$LT$i32$GT$$GT$3shr17h70dc288ecc5c9068E
	.p2align	4, 0x90
	.type	_ZN48_$LT$i8$u20$as$u20$core..ops..Shr$LT$i32$GT$$GT$3shr17h70dc288ecc5c9068E,@function
_ZN48_$LT$i8$u20$as$u20$core..ops..Shr$LT$i32$GT$$GT$3shr17h70dc288ecc5c9068E:
	movl	%esi, %ecx
	movl	%edi, %eax
	andb	$7, %cl
	sarb	%cl, %al
	retq
.Lfunc_end279:
	.size	_ZN48_$LT$i8$u20$as$u20$core..ops..Shr$LT$i32$GT$$GT$3shr17h70dc288ecc5c9068E, .Lfunc_end279-_ZN48_$LT$i8$u20$as$u20$core..ops..Shr$LT$i32$GT$$GT$3shr17h70dc288ecc5c9068E

	.section	".text._ZN48_$LT$i8$u20$as$u20$core..ops..Shl$LT$i32$GT$$GT$3shl17hc4d117d51481b90fE","ax",@progbits
	.globl	_ZN48_$LT$i8$u20$as$u20$core..ops..Shl$LT$i32$GT$$GT$3shl17hc4d117d51481b90fE
	.p2align	4, 0x90
	.type	_ZN48_$LT$i8$u20$as$u20$core..ops..Shl$LT$i32$GT$$GT$3shl17hc4d117d51481b90fE,@function
_ZN48_$LT$i8$u20$as$u20$core..ops..Shl$LT$i32$GT$$GT$3shl17hc4d117d51481b90fE:
	movl	%esi, %ecx
	movl	%edi, %eax
	andb	$7, %cl
	shlb	%cl, %al
	retq
.Lfunc_end280:
	.size	_ZN48_$LT$i8$u20$as$u20$core..ops..Shl$LT$i32$GT$$GT$3shl17hc4d117d51481b90fE, .Lfunc_end280-_ZN48_$LT$i8$u20$as$u20$core..ops..Shl$LT$i32$GT$$GT$3shl17hc4d117d51481b90fE

	.section	".text._ZN48_$LT$i8$u20$as$u20$core..ops..Shr$LT$i64$GT$$GT$3shr17hde9dfc211fc81c9dE","ax",@progbits
	.globl	_ZN48_$LT$i8$u20$as$u20$core..ops..Shr$LT$i64$GT$$GT$3shr17hde9dfc211fc81c9dE
	.p2align	4, 0x90
	.type	_ZN48_$LT$i8$u20$as$u20$core..ops..Shr$LT$i64$GT$$GT$3shr17hde9dfc211fc81c9dE,@function
_ZN48_$LT$i8$u20$as$u20$core..ops..Shr$LT$i64$GT$$GT$3shr17hde9dfc211fc81c9dE:
	movq	%rsi, %rcx
	movl	%edi, %eax
	andb	$7, %cl
	sarb	%cl, %al
	retq
.Lfunc_end281:
	.size	_ZN48_$LT$i8$u20$as$u20$core..ops..Shr$LT$i64$GT$$GT$3shr17hde9dfc211fc81c9dE, .Lfunc_end281-_ZN48_$LT$i8$u20$as$u20$core..ops..Shr$LT$i64$GT$$GT$3shr17hde9dfc211fc81c9dE

	.section	".text._ZN48_$LT$i8$u20$as$u20$core..ops..Shl$LT$i64$GT$$GT$3shl17h18cfa22c12d56657E","ax",@progbits
	.globl	_ZN48_$LT$i8$u20$as$u20$core..ops..Shl$LT$i64$GT$$GT$3shl17h18cfa22c12d56657E
	.p2align	4, 0x90
	.type	_ZN48_$LT$i8$u20$as$u20$core..ops..Shl$LT$i64$GT$$GT$3shl17h18cfa22c12d56657E,@function
_ZN48_$LT$i8$u20$as$u20$core..ops..Shl$LT$i64$GT$$GT$3shl17h18cfa22c12d56657E:
	movq	%rsi, %rcx
	movl	%edi, %eax
	andb	$7, %cl
	shlb	%cl, %al
	retq
.Lfunc_end282:
	.size	_ZN48_$LT$i8$u20$as$u20$core..ops..Shl$LT$i64$GT$$GT$3shl17h18cfa22c12d56657E, .Lfunc_end282-_ZN48_$LT$i8$u20$as$u20$core..ops..Shl$LT$i64$GT$$GT$3shl17h18cfa22c12d56657E

	.section	".text._ZN49_$LT$i8$u20$as$u20$core..ops..Shr$LT$i128$GT$$GT$3shr17h9f1e536694b87a67E","ax",@progbits
	.globl	_ZN49_$LT$i8$u20$as$u20$core..ops..Shr$LT$i128$GT$$GT$3shr17h9f1e536694b87a67E
	.p2align	4, 0x90
	.type	_ZN49_$LT$i8$u20$as$u20$core..ops..Shr$LT$i128$GT$$GT$3shr17h9f1e536694b87a67E,@function
_ZN49_$LT$i8$u20$as$u20$core..ops..Shr$LT$i128$GT$$GT$3shr17h9f1e536694b87a67E:
	movq	%rsi, %rcx
	movl	%edi, %eax
	andb	$7, %cl
	sarb	%cl, %al
	retq
.Lfunc_end283:
	.size	_ZN49_$LT$i8$u20$as$u20$core..ops..Shr$LT$i128$GT$$GT$3shr17h9f1e536694b87a67E, .Lfunc_end283-_ZN49_$LT$i8$u20$as$u20$core..ops..Shr$LT$i128$GT$$GT$3shr17h9f1e536694b87a67E

	.section	".text._ZN49_$LT$i8$u20$as$u20$core..ops..Shl$LT$i128$GT$$GT$3shl17h02c03f9967e1b8dfE","ax",@progbits
	.globl	_ZN49_$LT$i8$u20$as$u20$core..ops..Shl$LT$i128$GT$$GT$3shl17h02c03f9967e1b8dfE
	.p2align	4, 0x90
	.type	_ZN49_$LT$i8$u20$as$u20$core..ops..Shl$LT$i128$GT$$GT$3shl17h02c03f9967e1b8dfE,@function
_ZN49_$LT$i8$u20$as$u20$core..ops..Shl$LT$i128$GT$$GT$3shl17h02c03f9967e1b8dfE:
	movq	%rsi, %rcx
	movl	%edi, %eax
	andb	$7, %cl
	shlb	%cl, %al
	retq
.Lfunc_end284:
	.size	_ZN49_$LT$i8$u20$as$u20$core..ops..Shl$LT$i128$GT$$GT$3shl17h02c03f9967e1b8dfE, .Lfunc_end284-_ZN49_$LT$i8$u20$as$u20$core..ops..Shl$LT$i128$GT$$GT$3shl17h02c03f9967e1b8dfE

	.section	".text._ZN48_$LT$i16$u20$as$u20$core..ops..Shr$LT$i8$GT$$GT$3shr17hb20a568f9fc4c097E","ax",@progbits
	.globl	_ZN48_$LT$i16$u20$as$u20$core..ops..Shr$LT$i8$GT$$GT$3shr17hb20a568f9fc4c097E
	.p2align	4, 0x90
	.type	_ZN48_$LT$i16$u20$as$u20$core..ops..Shr$LT$i8$GT$$GT$3shr17hb20a568f9fc4c097E,@function
_ZN48_$LT$i16$u20$as$u20$core..ops..Shr$LT$i8$GT$$GT$3shr17hb20a568f9fc4c097E:
	movl	%esi, %ecx
	movswl	%di, %eax
	andb	$15, %cl
	sarl	%cl, %eax
	retq
.Lfunc_end285:
	.size	_ZN48_$LT$i16$u20$as$u20$core..ops..Shr$LT$i8$GT$$GT$3shr17hb20a568f9fc4c097E, .Lfunc_end285-_ZN48_$LT$i16$u20$as$u20$core..ops..Shr$LT$i8$GT$$GT$3shr17hb20a568f9fc4c097E

	.section	".text._ZN48_$LT$i16$u20$as$u20$core..ops..Shl$LT$i8$GT$$GT$3shl17h7d71eaeed397404fE","ax",@progbits
	.globl	_ZN48_$LT$i16$u20$as$u20$core..ops..Shl$LT$i8$GT$$GT$3shl17h7d71eaeed397404fE
	.p2align	4, 0x90
	.type	_ZN48_$LT$i16$u20$as$u20$core..ops..Shl$LT$i8$GT$$GT$3shl17h7d71eaeed397404fE,@function
_ZN48_$LT$i16$u20$as$u20$core..ops..Shl$LT$i8$GT$$GT$3shl17h7d71eaeed397404fE:
	movl	%esi, %ecx
	movl	%edi, %eax
	andb	$15, %cl
	shll	%cl, %eax
	retq
.Lfunc_end286:
	.size	_ZN48_$LT$i16$u20$as$u20$core..ops..Shl$LT$i8$GT$$GT$3shl17h7d71eaeed397404fE, .Lfunc_end286-_ZN48_$LT$i16$u20$as$u20$core..ops..Shl$LT$i8$GT$$GT$3shl17h7d71eaeed397404fE

	.section	".text._ZN38_$LT$i16$u20$as$u20$core..ops..Shr$GT$3shr17heb5cc130426a2f90E","ax",@progbits
	.globl	_ZN38_$LT$i16$u20$as$u20$core..ops..Shr$GT$3shr17heb5cc130426a2f90E
	.p2align	4, 0x90
	.type	_ZN38_$LT$i16$u20$as$u20$core..ops..Shr$GT$3shr17heb5cc130426a2f90E,@function
_ZN38_$LT$i16$u20$as$u20$core..ops..Shr$GT$3shr17heb5cc130426a2f90E:
	movl	%esi, %ecx
	movswl	%di, %eax
	andb	$15, %cl
	sarl	%cl, %eax
	retq
.Lfunc_end287:
	.size	_ZN38_$LT$i16$u20$as$u20$core..ops..Shr$GT$3shr17heb5cc130426a2f90E, .Lfunc_end287-_ZN38_$LT$i16$u20$as$u20$core..ops..Shr$GT$3shr17heb5cc130426a2f90E

	.section	".text._ZN38_$LT$i16$u20$as$u20$core..ops..Shl$GT$3shl17h8c611a0513a1e2c9E","ax",@progbits
	.globl	_ZN38_$LT$i16$u20$as$u20$core..ops..Shl$GT$3shl17h8c611a0513a1e2c9E
	.p2align	4, 0x90
	.type	_ZN38_$LT$i16$u20$as$u20$core..ops..Shl$GT$3shl17h8c611a0513a1e2c9E,@function
_ZN38_$LT$i16$u20$as$u20$core..ops..Shl$GT$3shl17h8c611a0513a1e2c9E:
	movl	%esi, %ecx
	movl	%edi, %eax
	andb	$15, %cl
	shll	%cl, %eax
	retq
.Lfunc_end288:
	.size	_ZN38_$LT$i16$u20$as$u20$core..ops..Shl$GT$3shl17h8c611a0513a1e2c9E, .Lfunc_end288-_ZN38_$LT$i16$u20$as$u20$core..ops..Shl$GT$3shl17h8c611a0513a1e2c9E

	.section	".text._ZN49_$LT$i16$u20$as$u20$core..ops..Shr$LT$i32$GT$$GT$3shr17hd0e997c0ead21de9E","ax",@progbits
	.globl	_ZN49_$LT$i16$u20$as$u20$core..ops..Shr$LT$i32$GT$$GT$3shr17hd0e997c0ead21de9E
	.p2align	4, 0x90
	.type	_ZN49_$LT$i16$u20$as$u20$core..ops..Shr$LT$i32$GT$$GT$3shr17hd0e997c0ead21de9E,@function
_ZN49_$LT$i16$u20$as$u20$core..ops..Shr$LT$i32$GT$$GT$3shr17hd0e997c0ead21de9E:
	movl	%esi, %ecx
	movswl	%di, %eax
	andb	$15, %cl
	sarl	%cl, %eax
	retq
.Lfunc_end289:
	.size	_ZN49_$LT$i16$u20$as$u20$core..ops..Shr$LT$i32$GT$$GT$3shr17hd0e997c0ead21de9E, .Lfunc_end289-_ZN49_$LT$i16$u20$as$u20$core..ops..Shr$LT$i32$GT$$GT$3shr17hd0e997c0ead21de9E

	.section	".text._ZN49_$LT$i16$u20$as$u20$core..ops..Shl$LT$i32$GT$$GT$3shl17hd1d42e21c1970c23E","ax",@progbits
	.globl	_ZN49_$LT$i16$u20$as$u20$core..ops..Shl$LT$i32$GT$$GT$3shl17hd1d42e21c1970c23E
	.p2align	4, 0x90
	.type	_ZN49_$LT$i16$u20$as$u20$core..ops..Shl$LT$i32$GT$$GT$3shl17hd1d42e21c1970c23E,@function
_ZN49_$LT$i16$u20$as$u20$core..ops..Shl$LT$i32$GT$$GT$3shl17hd1d42e21c1970c23E:
	movl	%esi, %ecx
	movl	%edi, %eax
	andb	$15, %cl
	shll	%cl, %eax
	retq
.Lfunc_end290:
	.size	_ZN49_$LT$i16$u20$as$u20$core..ops..Shl$LT$i32$GT$$GT$3shl17hd1d42e21c1970c23E, .Lfunc_end290-_ZN49_$LT$i16$u20$as$u20$core..ops..Shl$LT$i32$GT$$GT$3shl17hd1d42e21c1970c23E

	.section	".text._ZN49_$LT$i16$u20$as$u20$core..ops..Shr$LT$i64$GT$$GT$3shr17hf9176916c248c8aaE","ax",@progbits
	.globl	_ZN49_$LT$i16$u20$as$u20$core..ops..Shr$LT$i64$GT$$GT$3shr17hf9176916c248c8aaE
	.p2align	4, 0x90
	.type	_ZN49_$LT$i16$u20$as$u20$core..ops..Shr$LT$i64$GT$$GT$3shr17hf9176916c248c8aaE,@function
_ZN49_$LT$i16$u20$as$u20$core..ops..Shr$LT$i64$GT$$GT$3shr17hf9176916c248c8aaE:
	movq	%rsi, %rcx
	movswl	%di, %eax
	andb	$15, %cl
	sarl	%cl, %eax
	retq
.Lfunc_end291:
	.size	_ZN49_$LT$i16$u20$as$u20$core..ops..Shr$LT$i64$GT$$GT$3shr17hf9176916c248c8aaE, .Lfunc_end291-_ZN49_$LT$i16$u20$as$u20$core..ops..Shr$LT$i64$GT$$GT$3shr17hf9176916c248c8aaE

	.section	".text._ZN49_$LT$i16$u20$as$u20$core..ops..Shl$LT$i64$GT$$GT$3shl17h35f0a8adb7705e09E","ax",@progbits
	.globl	_ZN49_$LT$i16$u20$as$u20$core..ops..Shl$LT$i64$GT$$GT$3shl17h35f0a8adb7705e09E
	.p2align	4, 0x90
	.type	_ZN49_$LT$i16$u20$as$u20$core..ops..Shl$LT$i64$GT$$GT$3shl17h35f0a8adb7705e09E,@function
_ZN49_$LT$i16$u20$as$u20$core..ops..Shl$LT$i64$GT$$GT$3shl17h35f0a8adb7705e09E:
	movq	%rsi, %rcx
	movl	%edi, %eax
	andb	$15, %cl
	shll	%cl, %eax
	retq
.Lfunc_end292:
	.size	_ZN49_$LT$i16$u20$as$u20$core..ops..Shl$LT$i64$GT$$GT$3shl17h35f0a8adb7705e09E, .Lfunc_end292-_ZN49_$LT$i16$u20$as$u20$core..ops..Shl$LT$i64$GT$$GT$3shl17h35f0a8adb7705e09E

	.section	".text._ZN50_$LT$i16$u20$as$u20$core..ops..Shr$LT$i128$GT$$GT$3shr17he11005473ff0a557E","ax",@progbits
	.globl	_ZN50_$LT$i16$u20$as$u20$core..ops..Shr$LT$i128$GT$$GT$3shr17he11005473ff0a557E
	.p2align	4, 0x90
	.type	_ZN50_$LT$i16$u20$as$u20$core..ops..Shr$LT$i128$GT$$GT$3shr17he11005473ff0a557E,@function
_ZN50_$LT$i16$u20$as$u20$core..ops..Shr$LT$i128$GT$$GT$3shr17he11005473ff0a557E:
	movq	%rsi, %rcx
	movswl	%di, %eax
	andb	$15, %cl
	sarl	%cl, %eax
	retq
.Lfunc_end293:
	.size	_ZN50_$LT$i16$u20$as$u20$core..ops..Shr$LT$i128$GT$$GT$3shr17he11005473ff0a557E, .Lfunc_end293-_ZN50_$LT$i16$u20$as$u20$core..ops..Shr$LT$i128$GT$$GT$3shr17he11005473ff0a557E

	.section	".text._ZN50_$LT$i16$u20$as$u20$core..ops..Shl$LT$i128$GT$$GT$3shl17hd0ec4295ac030bd0E","ax",@progbits
	.globl	_ZN50_$LT$i16$u20$as$u20$core..ops..Shl$LT$i128$GT$$GT$3shl17hd0ec4295ac030bd0E
	.p2align	4, 0x90
	.type	_ZN50_$LT$i16$u20$as$u20$core..ops..Shl$LT$i128$GT$$GT$3shl17hd0ec4295ac030bd0E,@function
_ZN50_$LT$i16$u20$as$u20$core..ops..Shl$LT$i128$GT$$GT$3shl17hd0ec4295ac030bd0E:
	movq	%rsi, %rcx
	movl	%edi, %eax
	andb	$15, %cl
	shll	%cl, %eax
	retq
.Lfunc_end294:
	.size	_ZN50_$LT$i16$u20$as$u20$core..ops..Shl$LT$i128$GT$$GT$3shl17hd0ec4295ac030bd0E, .Lfunc_end294-_ZN50_$LT$i16$u20$as$u20$core..ops..Shl$LT$i128$GT$$GT$3shl17hd0ec4295ac030bd0E

	.section	".text._ZN48_$LT$i32$u20$as$u20$core..ops..Shr$LT$i8$GT$$GT$3shr17h336eaf555dd76f53E","ax",@progbits
	.globl	_ZN48_$LT$i32$u20$as$u20$core..ops..Shr$LT$i8$GT$$GT$3shr17h336eaf555dd76f53E
	.p2align	4, 0x90
	.type	_ZN48_$LT$i32$u20$as$u20$core..ops..Shr$LT$i8$GT$$GT$3shr17h336eaf555dd76f53E,@function
_ZN48_$LT$i32$u20$as$u20$core..ops..Shr$LT$i8$GT$$GT$3shr17h336eaf555dd76f53E:
	movl	%esi, %ecx
	movl	%edi, %eax
	sarl	%cl, %eax
	retq
.Lfunc_end295:
	.size	_ZN48_$LT$i32$u20$as$u20$core..ops..Shr$LT$i8$GT$$GT$3shr17h336eaf555dd76f53E, .Lfunc_end295-_ZN48_$LT$i32$u20$as$u20$core..ops..Shr$LT$i8$GT$$GT$3shr17h336eaf555dd76f53E

	.section	".text._ZN48_$LT$i32$u20$as$u20$core..ops..Shl$LT$i8$GT$$GT$3shl17h464e875af7507e58E","ax",@progbits
	.globl	_ZN48_$LT$i32$u20$as$u20$core..ops..Shl$LT$i8$GT$$GT$3shl17h464e875af7507e58E
	.p2align	4, 0x90
	.type	_ZN48_$LT$i32$u20$as$u20$core..ops..Shl$LT$i8$GT$$GT$3shl17h464e875af7507e58E,@function
_ZN48_$LT$i32$u20$as$u20$core..ops..Shl$LT$i8$GT$$GT$3shl17h464e875af7507e58E:
	movl	%esi, %ecx
	movl	%edi, %eax
	shll	%cl, %eax
	retq
.Lfunc_end296:
	.size	_ZN48_$LT$i32$u20$as$u20$core..ops..Shl$LT$i8$GT$$GT$3shl17h464e875af7507e58E, .Lfunc_end296-_ZN48_$LT$i32$u20$as$u20$core..ops..Shl$LT$i8$GT$$GT$3shl17h464e875af7507e58E

	.section	".text._ZN49_$LT$i32$u20$as$u20$core..ops..Shr$LT$i16$GT$$GT$3shr17hf33947c66acf937eE","ax",@progbits
	.globl	_ZN49_$LT$i32$u20$as$u20$core..ops..Shr$LT$i16$GT$$GT$3shr17hf33947c66acf937eE
	.p2align	4, 0x90
	.type	_ZN49_$LT$i32$u20$as$u20$core..ops..Shr$LT$i16$GT$$GT$3shr17hf33947c66acf937eE,@function
_ZN49_$LT$i32$u20$as$u20$core..ops..Shr$LT$i16$GT$$GT$3shr17hf33947c66acf937eE:
	movl	%esi, %ecx
	movl	%edi, %eax
	sarl	%cl, %eax
	retq
.Lfunc_end297:
	.size	_ZN49_$LT$i32$u20$as$u20$core..ops..Shr$LT$i16$GT$$GT$3shr17hf33947c66acf937eE, .Lfunc_end297-_ZN49_$LT$i32$u20$as$u20$core..ops..Shr$LT$i16$GT$$GT$3shr17hf33947c66acf937eE

	.section	".text._ZN49_$LT$i32$u20$as$u20$core..ops..Shl$LT$i16$GT$$GT$3shl17hd279c085a949e45fE","ax",@progbits
	.globl	_ZN49_$LT$i32$u20$as$u20$core..ops..Shl$LT$i16$GT$$GT$3shl17hd279c085a949e45fE
	.p2align	4, 0x90
	.type	_ZN49_$LT$i32$u20$as$u20$core..ops..Shl$LT$i16$GT$$GT$3shl17hd279c085a949e45fE,@function
_ZN49_$LT$i32$u20$as$u20$core..ops..Shl$LT$i16$GT$$GT$3shl17hd279c085a949e45fE:
	movl	%esi, %ecx
	movl	%edi, %eax
	shll	%cl, %eax
	retq
.Lfunc_end298:
	.size	_ZN49_$LT$i32$u20$as$u20$core..ops..Shl$LT$i16$GT$$GT$3shl17hd279c085a949e45fE, .Lfunc_end298-_ZN49_$LT$i32$u20$as$u20$core..ops..Shl$LT$i16$GT$$GT$3shl17hd279c085a949e45fE

	.section	".text._ZN38_$LT$i32$u20$as$u20$core..ops..Shr$GT$3shr17h557b09258e68e3f4E","ax",@progbits
	.globl	_ZN38_$LT$i32$u20$as$u20$core..ops..Shr$GT$3shr17h557b09258e68e3f4E
	.p2align	4, 0x90
	.type	_ZN38_$LT$i32$u20$as$u20$core..ops..Shr$GT$3shr17h557b09258e68e3f4E,@function
_ZN38_$LT$i32$u20$as$u20$core..ops..Shr$GT$3shr17h557b09258e68e3f4E:
	movl	%esi, %ecx
	movl	%edi, %eax
	sarl	%cl, %eax
	retq
.Lfunc_end299:
	.size	_ZN38_$LT$i32$u20$as$u20$core..ops..Shr$GT$3shr17h557b09258e68e3f4E, .Lfunc_end299-_ZN38_$LT$i32$u20$as$u20$core..ops..Shr$GT$3shr17h557b09258e68e3f4E

	.section	".text._ZN38_$LT$i32$u20$as$u20$core..ops..Shl$GT$3shl17hd836ee3fd4399e5fE","ax",@progbits
	.globl	_ZN38_$LT$i32$u20$as$u20$core..ops..Shl$GT$3shl17hd836ee3fd4399e5fE
	.p2align	4, 0x90
	.type	_ZN38_$LT$i32$u20$as$u20$core..ops..Shl$GT$3shl17hd836ee3fd4399e5fE,@function
_ZN38_$LT$i32$u20$as$u20$core..ops..Shl$GT$3shl17hd836ee3fd4399e5fE:
	movl	%esi, %ecx
	movl	%edi, %eax
	shll	%cl, %eax
	retq
.Lfunc_end300:
	.size	_ZN38_$LT$i32$u20$as$u20$core..ops..Shl$GT$3shl17hd836ee3fd4399e5fE, .Lfunc_end300-_ZN38_$LT$i32$u20$as$u20$core..ops..Shl$GT$3shl17hd836ee3fd4399e5fE

	.section	".text._ZN49_$LT$i32$u20$as$u20$core..ops..Shr$LT$i64$GT$$GT$3shr17h8c69af3a9020f055E","ax",@progbits
	.globl	_ZN49_$LT$i32$u20$as$u20$core..ops..Shr$LT$i64$GT$$GT$3shr17h8c69af3a9020f055E
	.p2align	4, 0x90
	.type	_ZN49_$LT$i32$u20$as$u20$core..ops..Shr$LT$i64$GT$$GT$3shr17h8c69af3a9020f055E,@function
_ZN49_$LT$i32$u20$as$u20$core..ops..Shr$LT$i64$GT$$GT$3shr17h8c69af3a9020f055E:
	movq	%rsi, %rcx
	movl	%edi, %eax
	sarl	%cl, %eax
	retq
.Lfunc_end301:
	.size	_ZN49_$LT$i32$u20$as$u20$core..ops..Shr$LT$i64$GT$$GT$3shr17h8c69af3a9020f055E, .Lfunc_end301-_ZN49_$LT$i32$u20$as$u20$core..ops..Shr$LT$i64$GT$$GT$3shr17h8c69af3a9020f055E

	.section	".text._ZN49_$LT$i32$u20$as$u20$core..ops..Shl$LT$i64$GT$$GT$3shl17h53a9f0e65c48f1ccE","ax",@progbits
	.globl	_ZN49_$LT$i32$u20$as$u20$core..ops..Shl$LT$i64$GT$$GT$3shl17h53a9f0e65c48f1ccE
	.p2align	4, 0x90
	.type	_ZN49_$LT$i32$u20$as$u20$core..ops..Shl$LT$i64$GT$$GT$3shl17h53a9f0e65c48f1ccE,@function
_ZN49_$LT$i32$u20$as$u20$core..ops..Shl$LT$i64$GT$$GT$3shl17h53a9f0e65c48f1ccE:
	movq	%rsi, %rcx
	movl	%edi, %eax
	shll	%cl, %eax
	retq
.Lfunc_end302:
	.size	_ZN49_$LT$i32$u20$as$u20$core..ops..Shl$LT$i64$GT$$GT$3shl17h53a9f0e65c48f1ccE, .Lfunc_end302-_ZN49_$LT$i32$u20$as$u20$core..ops..Shl$LT$i64$GT$$GT$3shl17h53a9f0e65c48f1ccE

	.section	".text._ZN50_$LT$i32$u20$as$u20$core..ops..Shr$LT$i128$GT$$GT$3shr17h161d427fe9b59769E","ax",@progbits
	.globl	_ZN50_$LT$i32$u20$as$u20$core..ops..Shr$LT$i128$GT$$GT$3shr17h161d427fe9b59769E
	.p2align	4, 0x90
	.type	_ZN50_$LT$i32$u20$as$u20$core..ops..Shr$LT$i128$GT$$GT$3shr17h161d427fe9b59769E,@function
_ZN50_$LT$i32$u20$as$u20$core..ops..Shr$LT$i128$GT$$GT$3shr17h161d427fe9b59769E:
	movq	%rsi, %rcx
	movl	%edi, %eax
	sarl	%cl, %eax
	retq
.Lfunc_end303:
	.size	_ZN50_$LT$i32$u20$as$u20$core..ops..Shr$LT$i128$GT$$GT$3shr17h161d427fe9b59769E, .Lfunc_end303-_ZN50_$LT$i32$u20$as$u20$core..ops..Shr$LT$i128$GT$$GT$3shr17h161d427fe9b59769E

	.section	".text._ZN50_$LT$i32$u20$as$u20$core..ops..Shl$LT$i128$GT$$GT$3shl17haa313f55cb3a8f4aE","ax",@progbits
	.globl	_ZN50_$LT$i32$u20$as$u20$core..ops..Shl$LT$i128$GT$$GT$3shl17haa313f55cb3a8f4aE
	.p2align	4, 0x90
	.type	_ZN50_$LT$i32$u20$as$u20$core..ops..Shl$LT$i128$GT$$GT$3shl17haa313f55cb3a8f4aE,@function
_ZN50_$LT$i32$u20$as$u20$core..ops..Shl$LT$i128$GT$$GT$3shl17haa313f55cb3a8f4aE:
	movq	%rsi, %rcx
	movl	%edi, %eax
	shll	%cl, %eax
	retq
.Lfunc_end304:
	.size	_ZN50_$LT$i32$u20$as$u20$core..ops..Shl$LT$i128$GT$$GT$3shl17haa313f55cb3a8f4aE, .Lfunc_end304-_ZN50_$LT$i32$u20$as$u20$core..ops..Shl$LT$i128$GT$$GT$3shl17haa313f55cb3a8f4aE

	.section	".text._ZN48_$LT$i64$u20$as$u20$core..ops..Shr$LT$i8$GT$$GT$3shr17hc89f437f1eb0a631E","ax",@progbits
	.globl	_ZN48_$LT$i64$u20$as$u20$core..ops..Shr$LT$i8$GT$$GT$3shr17hc89f437f1eb0a631E
	.p2align	4, 0x90
	.type	_ZN48_$LT$i64$u20$as$u20$core..ops..Shr$LT$i8$GT$$GT$3shr17hc89f437f1eb0a631E,@function
_ZN48_$LT$i64$u20$as$u20$core..ops..Shr$LT$i8$GT$$GT$3shr17hc89f437f1eb0a631E:
	movl	%esi, %ecx
	movq	%rdi, %rax
	sarq	%cl, %rax
	retq
.Lfunc_end305:
	.size	_ZN48_$LT$i64$u20$as$u20$core..ops..Shr$LT$i8$GT$$GT$3shr17hc89f437f1eb0a631E, .Lfunc_end305-_ZN48_$LT$i64$u20$as$u20$core..ops..Shr$LT$i8$GT$$GT$3shr17hc89f437f1eb0a631E

	.section	".text._ZN48_$LT$i64$u20$as$u20$core..ops..Shl$LT$i8$GT$$GT$3shl17h2c874dd4d53600beE","ax",@progbits
	.globl	_ZN48_$LT$i64$u20$as$u20$core..ops..Shl$LT$i8$GT$$GT$3shl17h2c874dd4d53600beE
	.p2align	4, 0x90
	.type	_ZN48_$LT$i64$u20$as$u20$core..ops..Shl$LT$i8$GT$$GT$3shl17h2c874dd4d53600beE,@function
_ZN48_$LT$i64$u20$as$u20$core..ops..Shl$LT$i8$GT$$GT$3shl17h2c874dd4d53600beE:
	movl	%esi, %ecx
	movq	%rdi, %rax
	shlq	%cl, %rax
	retq
.Lfunc_end306:
	.size	_ZN48_$LT$i64$u20$as$u20$core..ops..Shl$LT$i8$GT$$GT$3shl17h2c874dd4d53600beE, .Lfunc_end306-_ZN48_$LT$i64$u20$as$u20$core..ops..Shl$LT$i8$GT$$GT$3shl17h2c874dd4d53600beE

	.section	".text._ZN49_$LT$i64$u20$as$u20$core..ops..Shr$LT$i16$GT$$GT$3shr17hf69e45283918a1f1E","ax",@progbits
	.globl	_ZN49_$LT$i64$u20$as$u20$core..ops..Shr$LT$i16$GT$$GT$3shr17hf69e45283918a1f1E
	.p2align	4, 0x90
	.type	_ZN49_$LT$i64$u20$as$u20$core..ops..Shr$LT$i16$GT$$GT$3shr17hf69e45283918a1f1E,@function
_ZN49_$LT$i64$u20$as$u20$core..ops..Shr$LT$i16$GT$$GT$3shr17hf69e45283918a1f1E:
	movl	%esi, %ecx
	movq	%rdi, %rax
	sarq	%cl, %rax
	retq
.Lfunc_end307:
	.size	_ZN49_$LT$i64$u20$as$u20$core..ops..Shr$LT$i16$GT$$GT$3shr17hf69e45283918a1f1E, .Lfunc_end307-_ZN49_$LT$i64$u20$as$u20$core..ops..Shr$LT$i16$GT$$GT$3shr17hf69e45283918a1f1E

	.section	".text._ZN49_$LT$i64$u20$as$u20$core..ops..Shl$LT$i16$GT$$GT$3shl17h001ba275f42e8ca1E","ax",@progbits
	.globl	_ZN49_$LT$i64$u20$as$u20$core..ops..Shl$LT$i16$GT$$GT$3shl17h001ba275f42e8ca1E
	.p2align	4, 0x90
	.type	_ZN49_$LT$i64$u20$as$u20$core..ops..Shl$LT$i16$GT$$GT$3shl17h001ba275f42e8ca1E,@function
_ZN49_$LT$i64$u20$as$u20$core..ops..Shl$LT$i16$GT$$GT$3shl17h001ba275f42e8ca1E:
	movl	%esi, %ecx
	movq	%rdi, %rax
	shlq	%cl, %rax
	retq
.Lfunc_end308:
	.size	_ZN49_$LT$i64$u20$as$u20$core..ops..Shl$LT$i16$GT$$GT$3shl17h001ba275f42e8ca1E, .Lfunc_end308-_ZN49_$LT$i64$u20$as$u20$core..ops..Shl$LT$i16$GT$$GT$3shl17h001ba275f42e8ca1E

	.section	".text._ZN49_$LT$i64$u20$as$u20$core..ops..Shr$LT$i32$GT$$GT$3shr17hd4c9a26329d653efE","ax",@progbits
	.globl	_ZN49_$LT$i64$u20$as$u20$core..ops..Shr$LT$i32$GT$$GT$3shr17hd4c9a26329d653efE
	.p2align	4, 0x90
	.type	_ZN49_$LT$i64$u20$as$u20$core..ops..Shr$LT$i32$GT$$GT$3shr17hd4c9a26329d653efE,@function
_ZN49_$LT$i64$u20$as$u20$core..ops..Shr$LT$i32$GT$$GT$3shr17hd4c9a26329d653efE:
	movl	%esi, %ecx
	movq	%rdi, %rax
	sarq	%cl, %rax
	retq
.Lfunc_end309:
	.size	_ZN49_$LT$i64$u20$as$u20$core..ops..Shr$LT$i32$GT$$GT$3shr17hd4c9a26329d653efE, .Lfunc_end309-_ZN49_$LT$i64$u20$as$u20$core..ops..Shr$LT$i32$GT$$GT$3shr17hd4c9a26329d653efE

	.section	".text._ZN49_$LT$i64$u20$as$u20$core..ops..Shl$LT$i32$GT$$GT$3shl17h76d34a6e34735152E","ax",@progbits
	.globl	_ZN49_$LT$i64$u20$as$u20$core..ops..Shl$LT$i32$GT$$GT$3shl17h76d34a6e34735152E
	.p2align	4, 0x90
	.type	_ZN49_$LT$i64$u20$as$u20$core..ops..Shl$LT$i32$GT$$GT$3shl17h76d34a6e34735152E,@function
_ZN49_$LT$i64$u20$as$u20$core..ops..Shl$LT$i32$GT$$GT$3shl17h76d34a6e34735152E:
	movl	%esi, %ecx
	movq	%rdi, %rax
	shlq	%cl, %rax
	retq
.Lfunc_end310:
	.size	_ZN49_$LT$i64$u20$as$u20$core..ops..Shl$LT$i32$GT$$GT$3shl17h76d34a6e34735152E, .Lfunc_end310-_ZN49_$LT$i64$u20$as$u20$core..ops..Shl$LT$i32$GT$$GT$3shl17h76d34a6e34735152E

	.section	".text._ZN38_$LT$i64$u20$as$u20$core..ops..Shr$GT$3shr17h94d33dd5f49a874cE","ax",@progbits
	.globl	_ZN38_$LT$i64$u20$as$u20$core..ops..Shr$GT$3shr17h94d33dd5f49a874cE
	.p2align	4, 0x90
	.type	_ZN38_$LT$i64$u20$as$u20$core..ops..Shr$GT$3shr17h94d33dd5f49a874cE,@function
_ZN38_$LT$i64$u20$as$u20$core..ops..Shr$GT$3shr17h94d33dd5f49a874cE:
	movq	%rsi, %rcx
	movq	%rdi, %rax
	sarq	%cl, %rax
	retq
.Lfunc_end311:
	.size	_ZN38_$LT$i64$u20$as$u20$core..ops..Shr$GT$3shr17h94d33dd5f49a874cE, .Lfunc_end311-_ZN38_$LT$i64$u20$as$u20$core..ops..Shr$GT$3shr17h94d33dd5f49a874cE

	.section	".text._ZN38_$LT$i64$u20$as$u20$core..ops..Shl$GT$3shl17h26e3a4f3bebea5b2E","ax",@progbits
	.globl	_ZN38_$LT$i64$u20$as$u20$core..ops..Shl$GT$3shl17h26e3a4f3bebea5b2E
	.p2align	4, 0x90
	.type	_ZN38_$LT$i64$u20$as$u20$core..ops..Shl$GT$3shl17h26e3a4f3bebea5b2E,@function
_ZN38_$LT$i64$u20$as$u20$core..ops..Shl$GT$3shl17h26e3a4f3bebea5b2E:
	movq	%rsi, %rcx
	movq	%rdi, %rax
	shlq	%cl, %rax
	retq
.Lfunc_end312:
	.size	_ZN38_$LT$i64$u20$as$u20$core..ops..Shl$GT$3shl17h26e3a4f3bebea5b2E, .Lfunc_end312-_ZN38_$LT$i64$u20$as$u20$core..ops..Shl$GT$3shl17h26e3a4f3bebea5b2E

	.section	".text._ZN50_$LT$i64$u20$as$u20$core..ops..Shr$LT$i128$GT$$GT$3shr17hf4cdded171772685E","ax",@progbits
	.globl	_ZN50_$LT$i64$u20$as$u20$core..ops..Shr$LT$i128$GT$$GT$3shr17hf4cdded171772685E
	.p2align	4, 0x90
	.type	_ZN50_$LT$i64$u20$as$u20$core..ops..Shr$LT$i128$GT$$GT$3shr17hf4cdded171772685E,@function
_ZN50_$LT$i64$u20$as$u20$core..ops..Shr$LT$i128$GT$$GT$3shr17hf4cdded171772685E:
	movq	%rsi, %rcx
	movq	%rdi, %rax
	sarq	%cl, %rax
	retq
.Lfunc_end313:
	.size	_ZN50_$LT$i64$u20$as$u20$core..ops..Shr$LT$i128$GT$$GT$3shr17hf4cdded171772685E, .Lfunc_end313-_ZN50_$LT$i64$u20$as$u20$core..ops..Shr$LT$i128$GT$$GT$3shr17hf4cdded171772685E

	.section	".text._ZN50_$LT$i64$u20$as$u20$core..ops..Shl$LT$i128$GT$$GT$3shl17h3d4b4fc07cfd9f36E","ax",@progbits
	.globl	_ZN50_$LT$i64$u20$as$u20$core..ops..Shl$LT$i128$GT$$GT$3shl17h3d4b4fc07cfd9f36E
	.p2align	4, 0x90
	.type	_ZN50_$LT$i64$u20$as$u20$core..ops..Shl$LT$i128$GT$$GT$3shl17h3d4b4fc07cfd9f36E,@function
_ZN50_$LT$i64$u20$as$u20$core..ops..Shl$LT$i128$GT$$GT$3shl17h3d4b4fc07cfd9f36E:
	movq	%rsi, %rcx
	movq	%rdi, %rax
	shlq	%cl, %rax
	retq
.Lfunc_end314:
	.size	_ZN50_$LT$i64$u20$as$u20$core..ops..Shl$LT$i128$GT$$GT$3shl17h3d4b4fc07cfd9f36E, .Lfunc_end314-_ZN50_$LT$i64$u20$as$u20$core..ops..Shl$LT$i128$GT$$GT$3shl17h3d4b4fc07cfd9f36E

	.section	".text._ZN49_$LT$i128$u20$as$u20$core..ops..Shr$LT$i8$GT$$GT$3shr17h415774e5e51c3cfbE","ax",@progbits
	.globl	_ZN49_$LT$i128$u20$as$u20$core..ops..Shr$LT$i8$GT$$GT$3shr17h415774e5e51c3cfbE
	.p2align	4, 0x90
	.type	_ZN49_$LT$i128$u20$as$u20$core..ops..Shr$LT$i8$GT$$GT$3shr17h415774e5e51c3cfbE,@function
_ZN49_$LT$i128$u20$as$u20$core..ops..Shr$LT$i8$GT$$GT$3shr17h415774e5e51c3cfbE:
	movl	%edx, %ecx
	movq	%rsi, %rdx
	movq	%rdi, %rax
	shrdq	%cl, %rsi, %rax
	sarq	%cl, %rsi
	sarq	$63, %rdx
	testb	$64, %cl
	cmovneq	%rsi, %rax
	cmoveq	%rsi, %rdx
	retq
.Lfunc_end315:
	.size	_ZN49_$LT$i128$u20$as$u20$core..ops..Shr$LT$i8$GT$$GT$3shr17h415774e5e51c3cfbE, .Lfunc_end315-_ZN49_$LT$i128$u20$as$u20$core..ops..Shr$LT$i8$GT$$GT$3shr17h415774e5e51c3cfbE

	.section	".text._ZN49_$LT$i128$u20$as$u20$core..ops..Shl$LT$i8$GT$$GT$3shl17h1ce5d2ea4f8eb4d1E","ax",@progbits
	.globl	_ZN49_$LT$i128$u20$as$u20$core..ops..Shl$LT$i8$GT$$GT$3shl17h1ce5d2ea4f8eb4d1E
	.p2align	4, 0x90
	.type	_ZN49_$LT$i128$u20$as$u20$core..ops..Shl$LT$i8$GT$$GT$3shl17h1ce5d2ea4f8eb4d1E,@function
_ZN49_$LT$i128$u20$as$u20$core..ops..Shl$LT$i8$GT$$GT$3shl17h1ce5d2ea4f8eb4d1E:
	movl	%edx, %ecx
	movq	%rsi, %rdx
	shldq	%cl, %rdi, %rdx
	shlq	%cl, %rdi
	xorl	%eax, %eax
	testb	$64, %cl
	cmovneq	%rdi, %rdx
	cmoveq	%rdi, %rax
	retq
.Lfunc_end316:
	.size	_ZN49_$LT$i128$u20$as$u20$core..ops..Shl$LT$i8$GT$$GT$3shl17h1ce5d2ea4f8eb4d1E, .Lfunc_end316-_ZN49_$LT$i128$u20$as$u20$core..ops..Shl$LT$i8$GT$$GT$3shl17h1ce5d2ea4f8eb4d1E

	.section	".text._ZN50_$LT$i128$u20$as$u20$core..ops..Shr$LT$i16$GT$$GT$3shr17h9791ef12554373c0E","ax",@progbits
	.globl	_ZN50_$LT$i128$u20$as$u20$core..ops..Shr$LT$i16$GT$$GT$3shr17h9791ef12554373c0E
	.p2align	4, 0x90
	.type	_ZN50_$LT$i128$u20$as$u20$core..ops..Shr$LT$i16$GT$$GT$3shr17h9791ef12554373c0E,@function
_ZN50_$LT$i128$u20$as$u20$core..ops..Shr$LT$i16$GT$$GT$3shr17h9791ef12554373c0E:
	movl	%edx, %ecx
	movq	%rsi, %rdx
	movq	%rdi, %rax
	shrdq	%cl, %rsi, %rax
	sarq	%cl, %rsi
	sarq	$63, %rdx
	testb	$64, %cl
	cmovneq	%rsi, %rax
	cmoveq	%rsi, %rdx
	retq
.Lfunc_end317:
	.size	_ZN50_$LT$i128$u20$as$u20$core..ops..Shr$LT$i16$GT$$GT$3shr17h9791ef12554373c0E, .Lfunc_end317-_ZN50_$LT$i128$u20$as$u20$core..ops..Shr$LT$i16$GT$$GT$3shr17h9791ef12554373c0E

	.section	".text._ZN50_$LT$i128$u20$as$u20$core..ops..Shl$LT$i16$GT$$GT$3shl17h06ff238ba1e9599dE","ax",@progbits
	.globl	_ZN50_$LT$i128$u20$as$u20$core..ops..Shl$LT$i16$GT$$GT$3shl17h06ff238ba1e9599dE
	.p2align	4, 0x90
	.type	_ZN50_$LT$i128$u20$as$u20$core..ops..Shl$LT$i16$GT$$GT$3shl17h06ff238ba1e9599dE,@function
_ZN50_$LT$i128$u20$as$u20$core..ops..Shl$LT$i16$GT$$GT$3shl17h06ff238ba1e9599dE:
	movl	%edx, %ecx
	movq	%rsi, %rdx
	shldq	%cl, %rdi, %rdx
	shlq	%cl, %rdi
	xorl	%eax, %eax
	testb	$64, %cl
	cmovneq	%rdi, %rdx
	cmoveq	%rdi, %rax
	retq
.Lfunc_end318:
	.size	_ZN50_$LT$i128$u20$as$u20$core..ops..Shl$LT$i16$GT$$GT$3shl17h06ff238ba1e9599dE, .Lfunc_end318-_ZN50_$LT$i128$u20$as$u20$core..ops..Shl$LT$i16$GT$$GT$3shl17h06ff238ba1e9599dE

	.section	".text._ZN50_$LT$i128$u20$as$u20$core..ops..Shr$LT$i32$GT$$GT$3shr17ha90ec4d20dceb145E","ax",@progbits
	.globl	_ZN50_$LT$i128$u20$as$u20$core..ops..Shr$LT$i32$GT$$GT$3shr17ha90ec4d20dceb145E
	.p2align	4, 0x90
	.type	_ZN50_$LT$i128$u20$as$u20$core..ops..Shr$LT$i32$GT$$GT$3shr17ha90ec4d20dceb145E,@function
_ZN50_$LT$i128$u20$as$u20$core..ops..Shr$LT$i32$GT$$GT$3shr17ha90ec4d20dceb145E:
	movl	%edx, %ecx
	movq	%rsi, %rdx
	movq	%rdi, %rax
	shrdq	%cl, %rsi, %rax
	sarq	%cl, %rsi
	sarq	$63, %rdx
	testb	$64, %cl
	cmovneq	%rsi, %rax
	cmoveq	%rsi, %rdx
	retq
.Lfunc_end319:
	.size	_ZN50_$LT$i128$u20$as$u20$core..ops..Shr$LT$i32$GT$$GT$3shr17ha90ec4d20dceb145E, .Lfunc_end319-_ZN50_$LT$i128$u20$as$u20$core..ops..Shr$LT$i32$GT$$GT$3shr17ha90ec4d20dceb145E

	.section	".text._ZN50_$LT$i128$u20$as$u20$core..ops..Shl$LT$i32$GT$$GT$3shl17h78e798cfaa372e68E","ax",@progbits
	.globl	_ZN50_$LT$i128$u20$as$u20$core..ops..Shl$LT$i32$GT$$GT$3shl17h78e798cfaa372e68E
	.p2align	4, 0x90
	.type	_ZN50_$LT$i128$u20$as$u20$core..ops..Shl$LT$i32$GT$$GT$3shl17h78e798cfaa372e68E,@function
_ZN50_$LT$i128$u20$as$u20$core..ops..Shl$LT$i32$GT$$GT$3shl17h78e798cfaa372e68E:
	movl	%edx, %ecx
	movq	%rsi, %rdx
	shldq	%cl, %rdi, %rdx
	shlq	%cl, %rdi
	xorl	%eax, %eax
	testb	$64, %cl
	cmovneq	%rdi, %rdx
	cmoveq	%rdi, %rax
	retq
.Lfunc_end320:
	.size	_ZN50_$LT$i128$u20$as$u20$core..ops..Shl$LT$i32$GT$$GT$3shl17h78e798cfaa372e68E, .Lfunc_end320-_ZN50_$LT$i128$u20$as$u20$core..ops..Shl$LT$i32$GT$$GT$3shl17h78e798cfaa372e68E

	.section	".text._ZN50_$LT$i128$u20$as$u20$core..ops..Shr$LT$i64$GT$$GT$3shr17h6262f311ccab33d9E","ax",@progbits
	.globl	_ZN50_$LT$i128$u20$as$u20$core..ops..Shr$LT$i64$GT$$GT$3shr17h6262f311ccab33d9E
	.p2align	4, 0x90
	.type	_ZN50_$LT$i128$u20$as$u20$core..ops..Shr$LT$i64$GT$$GT$3shr17h6262f311ccab33d9E,@function
_ZN50_$LT$i128$u20$as$u20$core..ops..Shr$LT$i64$GT$$GT$3shr17h6262f311ccab33d9E:
	movq	%rdx, %rcx
	movq	%rsi, %rdx
	movq	%rdi, %rax
	shrdq	%cl, %rsi, %rax
	sarq	%cl, %rsi
	sarq	$63, %rdx
	testb	$64, %cl
	cmovneq	%rsi, %rax
	cmoveq	%rsi, %rdx
	retq
.Lfunc_end321:
	.size	_ZN50_$LT$i128$u20$as$u20$core..ops..Shr$LT$i64$GT$$GT$3shr17h6262f311ccab33d9E, .Lfunc_end321-_ZN50_$LT$i128$u20$as$u20$core..ops..Shr$LT$i64$GT$$GT$3shr17h6262f311ccab33d9E

	.section	".text._ZN50_$LT$i128$u20$as$u20$core..ops..Shl$LT$i64$GT$$GT$3shl17hb5ce40c308276109E","ax",@progbits
	.globl	_ZN50_$LT$i128$u20$as$u20$core..ops..Shl$LT$i64$GT$$GT$3shl17hb5ce40c308276109E
	.p2align	4, 0x90
	.type	_ZN50_$LT$i128$u20$as$u20$core..ops..Shl$LT$i64$GT$$GT$3shl17hb5ce40c308276109E,@function
_ZN50_$LT$i128$u20$as$u20$core..ops..Shl$LT$i64$GT$$GT$3shl17hb5ce40c308276109E:
	movq	%rdx, %rcx
	movq	%rsi, %rdx
	shldq	%cl, %rdi, %rdx
	shlq	%cl, %rdi
	xorl	%eax, %eax
	testb	$64, %cl
	cmovneq	%rdi, %rdx
	cmoveq	%rdi, %rax
	retq
.Lfunc_end322:
	.size	_ZN50_$LT$i128$u20$as$u20$core..ops..Shl$LT$i64$GT$$GT$3shl17hb5ce40c308276109E, .Lfunc_end322-_ZN50_$LT$i128$u20$as$u20$core..ops..Shl$LT$i64$GT$$GT$3shl17hb5ce40c308276109E

	.section	".text._ZN39_$LT$i128$u20$as$u20$core..ops..Shr$GT$3shr17h4747f381be3a0f39E","ax",@progbits
	.globl	_ZN39_$LT$i128$u20$as$u20$core..ops..Shr$GT$3shr17h4747f381be3a0f39E
	.p2align	4, 0x90
	.type	_ZN39_$LT$i128$u20$as$u20$core..ops..Shr$GT$3shr17h4747f381be3a0f39E,@function
_ZN39_$LT$i128$u20$as$u20$core..ops..Shr$GT$3shr17h4747f381be3a0f39E:
	movq	%rdx, %rcx
	movq	%rsi, %rdx
	movq	%rdi, %rax
	shrdq	%cl, %rsi, %rax
	sarq	%cl, %rsi
	sarq	$63, %rdx
	testb	$64, %cl
	cmovneq	%rsi, %rax
	cmoveq	%rsi, %rdx
	retq
.Lfunc_end323:
	.size	_ZN39_$LT$i128$u20$as$u20$core..ops..Shr$GT$3shr17h4747f381be3a0f39E, .Lfunc_end323-_ZN39_$LT$i128$u20$as$u20$core..ops..Shr$GT$3shr17h4747f381be3a0f39E

	.section	".text._ZN39_$LT$i128$u20$as$u20$core..ops..Shl$GT$3shl17ha6504058d14a6dbdE","ax",@progbits
	.globl	_ZN39_$LT$i128$u20$as$u20$core..ops..Shl$GT$3shl17ha6504058d14a6dbdE
	.p2align	4, 0x90
	.type	_ZN39_$LT$i128$u20$as$u20$core..ops..Shl$GT$3shl17ha6504058d14a6dbdE,@function
_ZN39_$LT$i128$u20$as$u20$core..ops..Shl$GT$3shl17ha6504058d14a6dbdE:
	movq	%rdx, %rcx
	movq	%rsi, %rdx
	shldq	%cl, %rdi, %rdx
	shlq	%cl, %rdi
	xorl	%eax, %eax
	testb	$64, %cl
	cmovneq	%rdi, %rdx
	cmoveq	%rdi, %rax
	retq
.Lfunc_end324:
	.size	_ZN39_$LT$i128$u20$as$u20$core..ops..Shl$GT$3shl17ha6504058d14a6dbdE, .Lfunc_end324-_ZN39_$LT$i128$u20$as$u20$core..ops..Shl$GT$3shl17ha6504058d14a6dbdE

	.type	.L__unnamed_1,@object
	.section	.rodata..L__unnamed_1,"a",@progbits
.L__unnamed_1:
	.ascii	"Acquire and AcqRel are invalid for stores"
	.size	.L__unnamed_1, 41

	.type	.L__unnamed_6,@object
	.section	.rodata..L__unnamed_6,"a",@progbits
.L__unnamed_6:
	.ascii	"/home/runner/Os/core/src/sync/atomic.rs"
	.size	.L__unnamed_6, 39

	.type	.L__unnamed_2,@object
	.section	.data.rel.ro..L__unnamed_2,"aw",@progbits
	.p2align	3
.L__unnamed_2:
	.quad	.L__unnamed_6
	.asciz	"'\000\000\000\000\000\000\000q\000\000\000\n\000\000"
	.size	.L__unnamed_2, 24

	.type	.L__unnamed_3,@object
	.section	.rodata..L__unnamed_3,"a",@progbits
.L__unnamed_3:
	.ascii	"Release and AcqRel are invalid for loads"
	.size	.L__unnamed_3, 40

	.type	.L__unnamed_4,@object
	.section	.data.rel.ro..L__unnamed_4,"aw",@progbits
	.p2align	3
.L__unnamed_4:
	.quad	.L__unnamed_6
	.asciz	"'\000\000\000\000\000\000\000y\000\000\000\n\000\000"
	.size	.L__unnamed_4, 24

	.type	.L__unnamed_7,@object
	.section	.rodata..L__unnamed_7,"a",@progbits
.L__unnamed_7:
	.ascii	"/home/runner/Os/core/src/ops.rs"
	.size	.L__unnamed_7, 31

	.type	.L__unnamed_5,@object
	.section	.data.rel.ro..L__unnamed_5,"aw",@progbits
	.p2align	3
.L__unnamed_5:
	.quad	.L__unnamed_7
	.asciz	"\037\000\000\000\000\000\000\000A\000\000\000\001\000\000"
	.size	.L__unnamed_5, 24

	.type	str.0,@object
	.section	.rodata.str.0,"a",@progbits
	.p2align	4
str.0:
	.ascii	"attempt to divide by zero"
	.size	str.0, 25

	.type	str.1,@object
	.section	.rodata.str.1,"a",@progbits
	.p2align	4
str.1:
	.ascii	"attempt to divide with overflow"
	.size	str.1, 31

	.type	str.2,@object
	.section	.rodata.str.2,"a",@progbits
	.p2align	4
str.2:
	.ascii	"attempt to calculate the remainder with a divisor of zero"
	.size	str.2, 57

	.type	str.3,@object
	.section	.rodata.str.3,"a",@progbits
	.p2align	4
str.3:
	.ascii	"attempt to calculate the remainder with overflow"
	.size	str.3, 48

	.globl	_ZN44_$LT$$RF$usize$u20$as$u20$core..ops..Div$GT$3div17h95776a554b498716E
	.type	_ZN44_$LT$$RF$usize$u20$as$u20$core..ops..Div$GT$3div17h95776a554b498716E,@function
.set _ZN44_$LT$$RF$usize$u20$as$u20$core..ops..Div$GT$3div17h95776a554b498716E, _ZN42_$LT$$RF$u64$u20$as$u20$core..ops..Div$GT$3div17hf832181e95a0f87aE
	.globl	_ZN40_$LT$usize$u20$as$u20$core..cmp..Ord$GT$3cmp17hb075e6f9760109e6E
	.type	_ZN40_$LT$usize$u20$as$u20$core..cmp..Ord$GT$3cmp17hb075e6f9760109e6E,@function
.set _ZN40_$LT$usize$u20$as$u20$core..cmp..Ord$GT$3cmp17hb075e6f9760109e6E, _ZN38_$LT$u64$u20$as$u20$core..cmp..Ord$GT$3cmp17h4b482d74172f8e53E
	.globl	_ZN40_$LT$isize$u20$as$u20$core..cmp..Ord$GT$3cmp17hf1d07065c2ea2acfE
	.type	_ZN40_$LT$isize$u20$as$u20$core..cmp..Ord$GT$3cmp17hf1d07065c2ea2acfE,@function
.set _ZN40_$LT$isize$u20$as$u20$core..cmp..Ord$GT$3cmp17hf1d07065c2ea2acfE, _ZN38_$LT$i64$u20$as$u20$core..cmp..Ord$GT$3cmp17h4c65a4ba69c9e524E
	.globl	_ZN37_$LT$u8$u20$as$u20$core..ops..Neg$GT$3neg17h0342eb6850c4f767E
	.type	_ZN37_$LT$u8$u20$as$u20$core..ops..Neg$GT$3neg17h0342eb6850c4f767E,@function
.set _ZN37_$LT$u8$u20$as$u20$core..ops..Neg$GT$3neg17h0342eb6850c4f767E, _ZN37_$LT$i8$u20$as$u20$core..ops..Neg$GT$3neg17hd42e9a3238095c2bE
	.globl	_ZN38_$LT$u16$u20$as$u20$core..ops..Neg$GT$3neg17h06b94c4ab04854d8E
	.type	_ZN38_$LT$u16$u20$as$u20$core..ops..Neg$GT$3neg17h06b94c4ab04854d8E,@function
.set _ZN38_$LT$u16$u20$as$u20$core..ops..Neg$GT$3neg17h06b94c4ab04854d8E, _ZN38_$LT$i16$u20$as$u20$core..ops..Neg$GT$3neg17h98db3d5cce6db911E
	.globl	_ZN38_$LT$u32$u20$as$u20$core..ops..Neg$GT$3neg17hbffb885d5d35e88aE
	.type	_ZN38_$LT$u32$u20$as$u20$core..ops..Neg$GT$3neg17hbffb885d5d35e88aE,@function
.set _ZN38_$LT$u32$u20$as$u20$core..ops..Neg$GT$3neg17hbffb885d5d35e88aE, _ZN38_$LT$i32$u20$as$u20$core..ops..Neg$GT$3neg17h0ffd724a66373a7eE
	.globl	_ZN38_$LT$u64$u20$as$u20$core..ops..Neg$GT$3neg17h73f71ee1ac04a5cbE
	.type	_ZN38_$LT$u64$u20$as$u20$core..ops..Neg$GT$3neg17h73f71ee1ac04a5cbE,@function
.set _ZN38_$LT$u64$u20$as$u20$core..ops..Neg$GT$3neg17h73f71ee1ac04a5cbE, _ZN38_$LT$i64$u20$as$u20$core..ops..Neg$GT$3neg17h177e1f872c3b3db3E
	.globl	_ZN39_$LT$u128$u20$as$u20$core..ops..Neg$GT$3neg17hd8dacbf09359d2e5E
	.type	_ZN39_$LT$u128$u20$as$u20$core..ops..Neg$GT$3neg17hd8dacbf09359d2e5E,@function
.set _ZN39_$LT$u128$u20$as$u20$core..ops..Neg$GT$3neg17hd8dacbf09359d2e5E, _ZN39_$LT$i128$u20$as$u20$core..ops..Neg$GT$3neg17hfc606530e8da4cf0E
	.globl	_ZN40_$LT$isize$u20$as$u20$core..ops..Neg$GT$3neg17h0dd8a09e6ad0d6c7E
	.type	_ZN40_$LT$isize$u20$as$u20$core..ops..Neg$GT$3neg17h0dd8a09e6ad0d6c7E,@function
.set _ZN40_$LT$isize$u20$as$u20$core..ops..Neg$GT$3neg17h0dd8a09e6ad0d6c7E, _ZN38_$LT$i64$u20$as$u20$core..ops..Neg$GT$3neg17h177e1f872c3b3db3E
	.globl	_ZN40_$LT$usize$u20$as$u20$core..ops..Neg$GT$3neg17h4f5bbbd84e0e25eaE
	.type	_ZN40_$LT$usize$u20$as$u20$core..ops..Neg$GT$3neg17h4f5bbbd84e0e25eaE,@function
.set _ZN40_$LT$usize$u20$as$u20$core..ops..Neg$GT$3neg17h4f5bbbd84e0e25eaE, _ZN38_$LT$i64$u20$as$u20$core..ops..Neg$GT$3neg17h177e1f872c3b3db3E
	.globl	_ZN40_$LT$isize$u20$as$u20$core..ops..Div$GT$3div17hf5d5b9dc524501f3E
	.type	_ZN40_$LT$isize$u20$as$u20$core..ops..Div$GT$3div17hf5d5b9dc524501f3E,@function
.set _ZN40_$LT$isize$u20$as$u20$core..ops..Div$GT$3div17hf5d5b9dc524501f3E, _ZN38_$LT$i64$u20$as$u20$core..ops..Div$GT$3div17h9ff9ed8659cb1d65E
	.globl	_ZN47_$LT$u8$u20$as$u20$core..ops..Shr$LT$i8$GT$$GT$3shr17h7c560b536d721504E
	.type	_ZN47_$LT$u8$u20$as$u20$core..ops..Shr$LT$i8$GT$$GT$3shr17h7c560b536d721504E,@function
.set _ZN47_$LT$u8$u20$as$u20$core..ops..Shr$LT$i8$GT$$GT$3shr17h7c560b536d721504E, _ZN37_$LT$u8$u20$as$u20$core..ops..Shr$GT$3shr17h2b437eeec2a57fe8E
	.globl	_ZN49_$LT$u16$u20$as$u20$core..ops..Shr$LT$i16$GT$$GT$3shr17h9deeaa06ac086287E
	.type	_ZN49_$LT$u16$u20$as$u20$core..ops..Shr$LT$i16$GT$$GT$3shr17h9deeaa06ac086287E,@function
.set _ZN49_$LT$u16$u20$as$u20$core..ops..Shr$LT$i16$GT$$GT$3shr17h9deeaa06ac086287E, _ZN38_$LT$u16$u20$as$u20$core..ops..Shr$GT$3shr17h5bb0795e4447c6c1E
	.globl	_ZN49_$LT$u32$u20$as$u20$core..ops..Shr$LT$i32$GT$$GT$3shr17h8557fdaa47077194E
	.type	_ZN49_$LT$u32$u20$as$u20$core..ops..Shr$LT$i32$GT$$GT$3shr17h8557fdaa47077194E,@function
.set _ZN49_$LT$u32$u20$as$u20$core..ops..Shr$LT$i32$GT$$GT$3shr17h8557fdaa47077194E, _ZN38_$LT$u32$u20$as$u20$core..ops..Shr$GT$3shr17h801a03b5ce621f69E
	.globl	_ZN51_$LT$u64$u20$as$u20$core..ops..Shr$LT$usize$GT$$GT$3shr17h002e7d7cfdf39fa1E
	.type	_ZN51_$LT$u64$u20$as$u20$core..ops..Shr$LT$usize$GT$$GT$3shr17h002e7d7cfdf39fa1E,@function
.set _ZN51_$LT$u64$u20$as$u20$core..ops..Shr$LT$usize$GT$$GT$3shr17h002e7d7cfdf39fa1E, _ZN38_$LT$u64$u20$as$u20$core..ops..Shr$GT$3shr17h134e15dd74e1fccaE
	.globl	_ZN49_$LT$u64$u20$as$u20$core..ops..Shr$LT$i64$GT$$GT$3shr17h7db6da2790b1bef6E
	.type	_ZN49_$LT$u64$u20$as$u20$core..ops..Shr$LT$i64$GT$$GT$3shr17h7db6da2790b1bef6E,@function
.set _ZN49_$LT$u64$u20$as$u20$core..ops..Shr$LT$i64$GT$$GT$3shr17h7db6da2790b1bef6E, _ZN38_$LT$u64$u20$as$u20$core..ops..Shr$GT$3shr17h134e15dd74e1fccaE
	.globl	_ZN51_$LT$u64$u20$as$u20$core..ops..Shr$LT$isize$GT$$GT$3shr17hcead1f2566cc6097E
	.type	_ZN51_$LT$u64$u20$as$u20$core..ops..Shr$LT$isize$GT$$GT$3shr17hcead1f2566cc6097E,@function
.set _ZN51_$LT$u64$u20$as$u20$core..ops..Shr$LT$isize$GT$$GT$3shr17hcead1f2566cc6097E, _ZN38_$LT$u64$u20$as$u20$core..ops..Shr$GT$3shr17h134e15dd74e1fccaE
	.globl	_ZN51_$LT$u128$u20$as$u20$core..ops..Shr$LT$i128$GT$$GT$3shr17hca8ade0bd90ed5c1E
	.type	_ZN51_$LT$u128$u20$as$u20$core..ops..Shr$LT$i128$GT$$GT$3shr17hca8ade0bd90ed5c1E,@function
.set _ZN51_$LT$u128$u20$as$u20$core..ops..Shr$LT$i128$GT$$GT$3shr17hca8ade0bd90ed5c1E, _ZN39_$LT$u128$u20$as$u20$core..ops..Shr$GT$3shr17hbd058dedec29c5c9E
	.globl	_ZN51_$LT$usize$u20$as$u20$core..ops..Shr$LT$u64$GT$$GT$3shr17h0db30b2d90ef8ee3E
	.type	_ZN51_$LT$usize$u20$as$u20$core..ops..Shr$LT$u64$GT$$GT$3shr17h0db30b2d90ef8ee3E,@function
.set _ZN51_$LT$usize$u20$as$u20$core..ops..Shr$LT$u64$GT$$GT$3shr17h0db30b2d90ef8ee3E, _ZN38_$LT$u64$u20$as$u20$core..ops..Shr$GT$3shr17h134e15dd74e1fccaE
	.globl	_ZN40_$LT$usize$u20$as$u20$core..ops..Shr$GT$3shr17hfec5cf771423a0dcE
	.type	_ZN40_$LT$usize$u20$as$u20$core..ops..Shr$GT$3shr17hfec5cf771423a0dcE,@function
.set _ZN40_$LT$usize$u20$as$u20$core..ops..Shr$GT$3shr17hfec5cf771423a0dcE, _ZN38_$LT$u64$u20$as$u20$core..ops..Shr$GT$3shr17h134e15dd74e1fccaE
	.globl	_ZN51_$LT$usize$u20$as$u20$core..ops..Shr$LT$i64$GT$$GT$3shr17hcab6dff7db9106e3E
	.type	_ZN51_$LT$usize$u20$as$u20$core..ops..Shr$LT$i64$GT$$GT$3shr17hcab6dff7db9106e3E,@function
.set _ZN51_$LT$usize$u20$as$u20$core..ops..Shr$LT$i64$GT$$GT$3shr17hcab6dff7db9106e3E, _ZN38_$LT$u64$u20$as$u20$core..ops..Shr$GT$3shr17h134e15dd74e1fccaE
	.globl	_ZN53_$LT$usize$u20$as$u20$core..ops..Shr$LT$isize$GT$$GT$3shr17h342dd596bb6dbd3dE
	.type	_ZN53_$LT$usize$u20$as$u20$core..ops..Shr$LT$isize$GT$$GT$3shr17h342dd596bb6dbd3dE,@function
.set _ZN53_$LT$usize$u20$as$u20$core..ops..Shr$LT$isize$GT$$GT$3shr17h342dd596bb6dbd3dE, _ZN38_$LT$u64$u20$as$u20$core..ops..Shr$GT$3shr17h134e15dd74e1fccaE
	.globl	_ZN44_$LT$$RF$usize$u20$as$u20$core..ops..Mul$GT$3mul17h2ac5327c3ca3e430E
	.type	_ZN44_$LT$$RF$usize$u20$as$u20$core..ops..Mul$GT$3mul17h2ac5327c3ca3e430E,@function
.set _ZN44_$LT$$RF$usize$u20$as$u20$core..ops..Mul$GT$3mul17h2ac5327c3ca3e430E, _ZN42_$LT$$RF$i64$u20$as$u20$core..ops..Mul$GT$3mul17h52e63173700a6c29E
	.globl	_ZN41_$LT$$RF$u8$u20$as$u20$core..ops..Mul$GT$3mul17hc8c353a3e9665c4bE
	.type	_ZN41_$LT$$RF$u8$u20$as$u20$core..ops..Mul$GT$3mul17hc8c353a3e9665c4bE,@function
.set _ZN41_$LT$$RF$u8$u20$as$u20$core..ops..Mul$GT$3mul17hc8c353a3e9665c4bE, _ZN41_$LT$$RF$i8$u20$as$u20$core..ops..Mul$GT$3mul17h7fd02529d1e21958E
	.globl	_ZN42_$LT$$RF$u16$u20$as$u20$core..ops..Mul$GT$3mul17hbc4b19f5a9cbcce4E
	.type	_ZN42_$LT$$RF$u16$u20$as$u20$core..ops..Mul$GT$3mul17hbc4b19f5a9cbcce4E,@function
.set _ZN42_$LT$$RF$u16$u20$as$u20$core..ops..Mul$GT$3mul17hbc4b19f5a9cbcce4E, _ZN42_$LT$$RF$i16$u20$as$u20$core..ops..Mul$GT$3mul17h0db03beb3be8a40fE
	.globl	_ZN42_$LT$$RF$u32$u20$as$u20$core..ops..Mul$GT$3mul17h706b4e5dfe2374dfE
	.type	_ZN42_$LT$$RF$u32$u20$as$u20$core..ops..Mul$GT$3mul17h706b4e5dfe2374dfE,@function
.set _ZN42_$LT$$RF$u32$u20$as$u20$core..ops..Mul$GT$3mul17h706b4e5dfe2374dfE, _ZN42_$LT$$RF$i32$u20$as$u20$core..ops..Mul$GT$3mul17hed952c558492460fE
	.globl	_ZN42_$LT$$RF$u64$u20$as$u20$core..ops..Mul$GT$3mul17h756948a282967480E
	.type	_ZN42_$LT$$RF$u64$u20$as$u20$core..ops..Mul$GT$3mul17h756948a282967480E,@function
.set _ZN42_$LT$$RF$u64$u20$as$u20$core..ops..Mul$GT$3mul17h756948a282967480E, _ZN42_$LT$$RF$i64$u20$as$u20$core..ops..Mul$GT$3mul17h52e63173700a6c29E
	.globl	_ZN43_$LT$$RF$u128$u20$as$u20$core..ops..Mul$GT$3mul17ha21f4b153eeb305cE
	.type	_ZN43_$LT$$RF$u128$u20$as$u20$core..ops..Mul$GT$3mul17ha21f4b153eeb305cE,@function
.set _ZN43_$LT$$RF$u128$u20$as$u20$core..ops..Mul$GT$3mul17ha21f4b153eeb305cE, _ZN43_$LT$$RF$i128$u20$as$u20$core..ops..Mul$GT$3mul17h0dd15046dea98f90E
	.globl	_ZN44_$LT$$RF$isize$u20$as$u20$core..ops..Mul$GT$3mul17h31cbd54d3711cde6E
	.type	_ZN44_$LT$$RF$isize$u20$as$u20$core..ops..Mul$GT$3mul17h31cbd54d3711cde6E,@function
.set _ZN44_$LT$$RF$isize$u20$as$u20$core..ops..Mul$GT$3mul17h31cbd54d3711cde6E, _ZN42_$LT$$RF$i64$u20$as$u20$core..ops..Mul$GT$3mul17h52e63173700a6c29E
	.globl	_ZN50_$LT$i8$u20$as$u20$core..ops..Shr$LT$usize$GT$$GT$3shr17h0a7f1b01373f4a7eE
	.type	_ZN50_$LT$i8$u20$as$u20$core..ops..Shr$LT$usize$GT$$GT$3shr17h0a7f1b01373f4a7eE,@function
.set _ZN50_$LT$i8$u20$as$u20$core..ops..Shr$LT$usize$GT$$GT$3shr17h0a7f1b01373f4a7eE, _ZN48_$LT$i8$u20$as$u20$core..ops..Shr$LT$i64$GT$$GT$3shr17hde9dfc211fc81c9dE
	.globl	_ZN48_$LT$i8$u20$as$u20$core..ops..Shr$LT$u16$GT$$GT$3shr17h4c3cb09e6cdb47d6E
	.type	_ZN48_$LT$i8$u20$as$u20$core..ops..Shr$LT$u16$GT$$GT$3shr17h4c3cb09e6cdb47d6E,@function
.set _ZN48_$LT$i8$u20$as$u20$core..ops..Shr$LT$u16$GT$$GT$3shr17h4c3cb09e6cdb47d6E, _ZN48_$LT$i8$u20$as$u20$core..ops..Shr$LT$i16$GT$$GT$3shr17h72467afe0c552bc8E
	.globl	_ZN48_$LT$i8$u20$as$u20$core..ops..Shr$LT$u32$GT$$GT$3shr17h28798169eba1450fE
	.type	_ZN48_$LT$i8$u20$as$u20$core..ops..Shr$LT$u32$GT$$GT$3shr17h28798169eba1450fE,@function
.set _ZN48_$LT$i8$u20$as$u20$core..ops..Shr$LT$u32$GT$$GT$3shr17h28798169eba1450fE, _ZN48_$LT$i8$u20$as$u20$core..ops..Shr$LT$i32$GT$$GT$3shr17h70dc288ecc5c9068E
	.globl	_ZN48_$LT$i8$u20$as$u20$core..ops..Shr$LT$u64$GT$$GT$3shr17h1c93568ff8bd6ba3E
	.type	_ZN48_$LT$i8$u20$as$u20$core..ops..Shr$LT$u64$GT$$GT$3shr17h1c93568ff8bd6ba3E,@function
.set _ZN48_$LT$i8$u20$as$u20$core..ops..Shr$LT$u64$GT$$GT$3shr17h1c93568ff8bd6ba3E, _ZN48_$LT$i8$u20$as$u20$core..ops..Shr$LT$i64$GT$$GT$3shr17hde9dfc211fc81c9dE
	.globl	_ZN49_$LT$i8$u20$as$u20$core..ops..Shr$LT$u128$GT$$GT$3shr17haf6e3b151d97cbf6E
	.type	_ZN49_$LT$i8$u20$as$u20$core..ops..Shr$LT$u128$GT$$GT$3shr17haf6e3b151d97cbf6E,@function
.set _ZN49_$LT$i8$u20$as$u20$core..ops..Shr$LT$u128$GT$$GT$3shr17haf6e3b151d97cbf6E, _ZN49_$LT$i8$u20$as$u20$core..ops..Shr$LT$i128$GT$$GT$3shr17h9f1e536694b87a67E
	.globl	_ZN50_$LT$i8$u20$as$u20$core..ops..Shr$LT$isize$GT$$GT$3shr17h06e743ecdec9a195E
	.type	_ZN50_$LT$i8$u20$as$u20$core..ops..Shr$LT$isize$GT$$GT$3shr17h06e743ecdec9a195E,@function
.set _ZN50_$LT$i8$u20$as$u20$core..ops..Shr$LT$isize$GT$$GT$3shr17h06e743ecdec9a195E, _ZN48_$LT$i8$u20$as$u20$core..ops..Shr$LT$i64$GT$$GT$3shr17hde9dfc211fc81c9dE
	.globl	_ZN51_$LT$i16$u20$as$u20$core..ops..Shr$LT$usize$GT$$GT$3shr17h52e3f6ea7ab99049E
	.type	_ZN51_$LT$i16$u20$as$u20$core..ops..Shr$LT$usize$GT$$GT$3shr17h52e3f6ea7ab99049E,@function
.set _ZN51_$LT$i16$u20$as$u20$core..ops..Shr$LT$usize$GT$$GT$3shr17h52e3f6ea7ab99049E, _ZN49_$LT$i16$u20$as$u20$core..ops..Shr$LT$i64$GT$$GT$3shr17hf9176916c248c8aaE
	.globl	_ZN49_$LT$i16$u20$as$u20$core..ops..Shr$LT$u32$GT$$GT$3shr17hbee0ba607dceaff7E
	.type	_ZN49_$LT$i16$u20$as$u20$core..ops..Shr$LT$u32$GT$$GT$3shr17hbee0ba607dceaff7E,@function
.set _ZN49_$LT$i16$u20$as$u20$core..ops..Shr$LT$u32$GT$$GT$3shr17hbee0ba607dceaff7E, _ZN49_$LT$i16$u20$as$u20$core..ops..Shr$LT$i32$GT$$GT$3shr17hd0e997c0ead21de9E
	.globl	_ZN49_$LT$i16$u20$as$u20$core..ops..Shr$LT$u64$GT$$GT$3shr17h064e5f1cff40d711E
	.type	_ZN49_$LT$i16$u20$as$u20$core..ops..Shr$LT$u64$GT$$GT$3shr17h064e5f1cff40d711E,@function
.set _ZN49_$LT$i16$u20$as$u20$core..ops..Shr$LT$u64$GT$$GT$3shr17h064e5f1cff40d711E, _ZN49_$LT$i16$u20$as$u20$core..ops..Shr$LT$i64$GT$$GT$3shr17hf9176916c248c8aaE
	.globl	_ZN50_$LT$i16$u20$as$u20$core..ops..Shr$LT$u128$GT$$GT$3shr17h5e6f4f602e04fbaaE
	.type	_ZN50_$LT$i16$u20$as$u20$core..ops..Shr$LT$u128$GT$$GT$3shr17h5e6f4f602e04fbaaE,@function
.set _ZN50_$LT$i16$u20$as$u20$core..ops..Shr$LT$u128$GT$$GT$3shr17h5e6f4f602e04fbaaE, _ZN50_$LT$i16$u20$as$u20$core..ops..Shr$LT$i128$GT$$GT$3shr17he11005473ff0a557E
	.globl	_ZN51_$LT$i16$u20$as$u20$core..ops..Shr$LT$isize$GT$$GT$3shr17h6103f9c945b3729cE
	.type	_ZN51_$LT$i16$u20$as$u20$core..ops..Shr$LT$isize$GT$$GT$3shr17h6103f9c945b3729cE,@function
.set _ZN51_$LT$i16$u20$as$u20$core..ops..Shr$LT$isize$GT$$GT$3shr17h6103f9c945b3729cE, _ZN49_$LT$i16$u20$as$u20$core..ops..Shr$LT$i64$GT$$GT$3shr17hf9176916c248c8aaE
	.globl	_ZN51_$LT$i32$u20$as$u20$core..ops..Shr$LT$usize$GT$$GT$3shr17h562b41fa1f96d71fE
	.type	_ZN51_$LT$i32$u20$as$u20$core..ops..Shr$LT$usize$GT$$GT$3shr17h562b41fa1f96d71fE,@function
.set _ZN51_$LT$i32$u20$as$u20$core..ops..Shr$LT$usize$GT$$GT$3shr17h562b41fa1f96d71fE, _ZN49_$LT$i32$u20$as$u20$core..ops..Shr$LT$i64$GT$$GT$3shr17h8c69af3a9020f055E
	.globl	_ZN49_$LT$i32$u20$as$u20$core..ops..Shr$LT$u64$GT$$GT$3shr17hba1c1146572be6a5E
	.type	_ZN49_$LT$i32$u20$as$u20$core..ops..Shr$LT$u64$GT$$GT$3shr17hba1c1146572be6a5E,@function
.set _ZN49_$LT$i32$u20$as$u20$core..ops..Shr$LT$u64$GT$$GT$3shr17hba1c1146572be6a5E, _ZN49_$LT$i32$u20$as$u20$core..ops..Shr$LT$i64$GT$$GT$3shr17h8c69af3a9020f055E
	.globl	_ZN50_$LT$i32$u20$as$u20$core..ops..Shr$LT$u128$GT$$GT$3shr17ha23df293219aa07dE
	.type	_ZN50_$LT$i32$u20$as$u20$core..ops..Shr$LT$u128$GT$$GT$3shr17ha23df293219aa07dE,@function
.set _ZN50_$LT$i32$u20$as$u20$core..ops..Shr$LT$u128$GT$$GT$3shr17ha23df293219aa07dE, _ZN50_$LT$i32$u20$as$u20$core..ops..Shr$LT$i128$GT$$GT$3shr17h161d427fe9b59769E
	.globl	_ZN51_$LT$i32$u20$as$u20$core..ops..Shr$LT$isize$GT$$GT$3shr17h1ff134f66c788bb3E
	.type	_ZN51_$LT$i32$u20$as$u20$core..ops..Shr$LT$isize$GT$$GT$3shr17h1ff134f66c788bb3E,@function
.set _ZN51_$LT$i32$u20$as$u20$core..ops..Shr$LT$isize$GT$$GT$3shr17h1ff134f66c788bb3E, _ZN49_$LT$i32$u20$as$u20$core..ops..Shr$LT$i64$GT$$GT$3shr17h8c69af3a9020f055E
	.globl	_ZN50_$LT$i64$u20$as$u20$core..ops..Shr$LT$u128$GT$$GT$3shr17h10dfe0a6421eef59E
	.type	_ZN50_$LT$i64$u20$as$u20$core..ops..Shr$LT$u128$GT$$GT$3shr17h10dfe0a6421eef59E,@function
.set _ZN50_$LT$i64$u20$as$u20$core..ops..Shr$LT$u128$GT$$GT$3shr17h10dfe0a6421eef59E, _ZN50_$LT$i64$u20$as$u20$core..ops..Shr$LT$i128$GT$$GT$3shr17hf4cdded171772685E
	.globl	_ZN52_$LT$isize$u20$as$u20$core..ops..Shr$LT$u128$GT$$GT$3shr17h2029d0ec8f1e9b59E
	.type	_ZN52_$LT$isize$u20$as$u20$core..ops..Shr$LT$u128$GT$$GT$3shr17h2029d0ec8f1e9b59E,@function
.set _ZN52_$LT$isize$u20$as$u20$core..ops..Shr$LT$u128$GT$$GT$3shr17h2029d0ec8f1e9b59E, _ZN50_$LT$i64$u20$as$u20$core..ops..Shr$LT$i128$GT$$GT$3shr17hf4cdded171772685E
	.globl	_ZN52_$LT$isize$u20$as$u20$core..ops..Shr$LT$i128$GT$$GT$3shr17h0241971cb8a7bcbeE
	.type	_ZN52_$LT$isize$u20$as$u20$core..ops..Shr$LT$i128$GT$$GT$3shr17h0241971cb8a7bcbeE,@function
.set _ZN52_$LT$isize$u20$as$u20$core..ops..Shr$LT$i128$GT$$GT$3shr17h0241971cb8a7bcbeE, _ZN50_$LT$i64$u20$as$u20$core..ops..Shr$LT$i128$GT$$GT$3shr17hf4cdded171772685E
	.globl	_ZN40_$LT$isize$u20$as$u20$core..ops..Rem$GT$3rem17h3e93e0ee19ac0c28E
	.type	_ZN40_$LT$isize$u20$as$u20$core..ops..Rem$GT$3rem17h3e93e0ee19ac0c28E,@function
.set _ZN40_$LT$isize$u20$as$u20$core..ops..Rem$GT$3rem17h3e93e0ee19ac0c28E, _ZN38_$LT$i64$u20$as$u20$core..ops..Rem$GT$3rem17ha59b0fe446e302cdE
	.globl	_ZN48_$LT$u16$u20$as$u20$core..ops..Shr$LT$u8$GT$$GT$3shr17h9a97ccb58ae27f04E
	.type	_ZN48_$LT$u16$u20$as$u20$core..ops..Shr$LT$u8$GT$$GT$3shr17h9a97ccb58ae27f04E,@function
.set _ZN48_$LT$u16$u20$as$u20$core..ops..Shr$LT$u8$GT$$GT$3shr17h9a97ccb58ae27f04E, _ZN48_$LT$u16$u20$as$u20$core..ops..Shr$LT$i8$GT$$GT$3shr17hf9e06e811b3f2022E
	.globl	_ZN48_$LT$u32$u20$as$u20$core..ops..Shr$LT$u8$GT$$GT$3shr17h99918390ac060890E
	.type	_ZN48_$LT$u32$u20$as$u20$core..ops..Shr$LT$u8$GT$$GT$3shr17h99918390ac060890E,@function
.set _ZN48_$LT$u32$u20$as$u20$core..ops..Shr$LT$u8$GT$$GT$3shr17h99918390ac060890E, _ZN48_$LT$u32$u20$as$u20$core..ops..Shr$LT$i8$GT$$GT$3shr17h18b27ff6b3e8848fE
	.globl	_ZN49_$LT$u32$u20$as$u20$core..ops..Shr$LT$u16$GT$$GT$3shr17h986be1d14a714d79E
	.type	_ZN49_$LT$u32$u20$as$u20$core..ops..Shr$LT$u16$GT$$GT$3shr17h986be1d14a714d79E,@function
.set _ZN49_$LT$u32$u20$as$u20$core..ops..Shr$LT$u16$GT$$GT$3shr17h986be1d14a714d79E, _ZN49_$LT$u32$u20$as$u20$core..ops..Shr$LT$i16$GT$$GT$3shr17hd3312d451bf6a527E
	.globl	_ZN48_$LT$u64$u20$as$u20$core..ops..Shr$LT$u8$GT$$GT$3shr17h86c999349f95008cE
	.type	_ZN48_$LT$u64$u20$as$u20$core..ops..Shr$LT$u8$GT$$GT$3shr17h86c999349f95008cE,@function
.set _ZN48_$LT$u64$u20$as$u20$core..ops..Shr$LT$u8$GT$$GT$3shr17h86c999349f95008cE, _ZN48_$LT$u64$u20$as$u20$core..ops..Shr$LT$i8$GT$$GT$3shr17h240f6afcdfe6ae49E
	.globl	_ZN49_$LT$u64$u20$as$u20$core..ops..Shr$LT$u16$GT$$GT$3shr17h61ca0e781e2edaf5E
	.type	_ZN49_$LT$u64$u20$as$u20$core..ops..Shr$LT$u16$GT$$GT$3shr17h61ca0e781e2edaf5E,@function
.set _ZN49_$LT$u64$u20$as$u20$core..ops..Shr$LT$u16$GT$$GT$3shr17h61ca0e781e2edaf5E, _ZN49_$LT$u64$u20$as$u20$core..ops..Shr$LT$i16$GT$$GT$3shr17hebd9708b55ee0271E
	.globl	_ZN49_$LT$u64$u20$as$u20$core..ops..Shr$LT$u32$GT$$GT$3shr17h41a20dab7e79270aE
	.type	_ZN49_$LT$u64$u20$as$u20$core..ops..Shr$LT$u32$GT$$GT$3shr17h41a20dab7e79270aE,@function
.set _ZN49_$LT$u64$u20$as$u20$core..ops..Shr$LT$u32$GT$$GT$3shr17h41a20dab7e79270aE, _ZN49_$LT$u64$u20$as$u20$core..ops..Shr$LT$i32$GT$$GT$3shr17h1ef5af7016ae8cb1E
	.globl	_ZN52_$LT$u128$u20$as$u20$core..ops..Shr$LT$usize$GT$$GT$3shr17h18426d594eaa5834E
	.type	_ZN52_$LT$u128$u20$as$u20$core..ops..Shr$LT$usize$GT$$GT$3shr17h18426d594eaa5834E,@function
.set _ZN52_$LT$u128$u20$as$u20$core..ops..Shr$LT$usize$GT$$GT$3shr17h18426d594eaa5834E, _ZN50_$LT$u128$u20$as$u20$core..ops..Shr$LT$i64$GT$$GT$3shr17ha5053fcb83a7a9b3E
	.globl	_ZN49_$LT$u128$u20$as$u20$core..ops..Shr$LT$u8$GT$$GT$3shr17h1cd84d0d5a6bdfd8E
	.type	_ZN49_$LT$u128$u20$as$u20$core..ops..Shr$LT$u8$GT$$GT$3shr17h1cd84d0d5a6bdfd8E,@function
.set _ZN49_$LT$u128$u20$as$u20$core..ops..Shr$LT$u8$GT$$GT$3shr17h1cd84d0d5a6bdfd8E, _ZN49_$LT$u128$u20$as$u20$core..ops..Shr$LT$i8$GT$$GT$3shr17hfbd21c996c22ed35E
	.globl	_ZN50_$LT$u128$u20$as$u20$core..ops..Shr$LT$u16$GT$$GT$3shr17hfae7cf98a1780d86E
	.type	_ZN50_$LT$u128$u20$as$u20$core..ops..Shr$LT$u16$GT$$GT$3shr17hfae7cf98a1780d86E,@function
.set _ZN50_$LT$u128$u20$as$u20$core..ops..Shr$LT$u16$GT$$GT$3shr17hfae7cf98a1780d86E, _ZN50_$LT$u128$u20$as$u20$core..ops..Shr$LT$i16$GT$$GT$3shr17ha156867e2c33ae06E
	.globl	_ZN50_$LT$u128$u20$as$u20$core..ops..Shr$LT$u32$GT$$GT$3shr17he714b452b210ad57E
	.type	_ZN50_$LT$u128$u20$as$u20$core..ops..Shr$LT$u32$GT$$GT$3shr17he714b452b210ad57E,@function
.set _ZN50_$LT$u128$u20$as$u20$core..ops..Shr$LT$u32$GT$$GT$3shr17he714b452b210ad57E, _ZN50_$LT$u128$u20$as$u20$core..ops..Shr$LT$i32$GT$$GT$3shr17h93d57f141f83ea57E
	.globl	_ZN50_$LT$u128$u20$as$u20$core..ops..Shr$LT$u64$GT$$GT$3shr17hbf9a500e9a4ef662E
	.type	_ZN50_$LT$u128$u20$as$u20$core..ops..Shr$LT$u64$GT$$GT$3shr17hbf9a500e9a4ef662E,@function
.set _ZN50_$LT$u128$u20$as$u20$core..ops..Shr$LT$u64$GT$$GT$3shr17hbf9a500e9a4ef662E, _ZN50_$LT$u128$u20$as$u20$core..ops..Shr$LT$i64$GT$$GT$3shr17ha5053fcb83a7a9b3E
	.globl	_ZN52_$LT$u128$u20$as$u20$core..ops..Shr$LT$isize$GT$$GT$3shr17hae249dba5cdd01eaE
	.type	_ZN52_$LT$u128$u20$as$u20$core..ops..Shr$LT$isize$GT$$GT$3shr17hae249dba5cdd01eaE,@function
.set _ZN52_$LT$u128$u20$as$u20$core..ops..Shr$LT$isize$GT$$GT$3shr17hae249dba5cdd01eaE, _ZN50_$LT$u128$u20$as$u20$core..ops..Shr$LT$i64$GT$$GT$3shr17ha5053fcb83a7a9b3E
	.globl	_ZN50_$LT$usize$u20$as$u20$core..ops..Shr$LT$u8$GT$$GT$3shr17h573f2e58b5531298E
	.type	_ZN50_$LT$usize$u20$as$u20$core..ops..Shr$LT$u8$GT$$GT$3shr17h573f2e58b5531298E,@function
.set _ZN50_$LT$usize$u20$as$u20$core..ops..Shr$LT$u8$GT$$GT$3shr17h573f2e58b5531298E, _ZN48_$LT$u64$u20$as$u20$core..ops..Shr$LT$i8$GT$$GT$3shr17h240f6afcdfe6ae49E
	.globl	_ZN51_$LT$usize$u20$as$u20$core..ops..Shr$LT$u16$GT$$GT$3shr17h36d1e05a26dd9133E
	.type	_ZN51_$LT$usize$u20$as$u20$core..ops..Shr$LT$u16$GT$$GT$3shr17h36d1e05a26dd9133E,@function
.set _ZN51_$LT$usize$u20$as$u20$core..ops..Shr$LT$u16$GT$$GT$3shr17h36d1e05a26dd9133E, _ZN49_$LT$u64$u20$as$u20$core..ops..Shr$LT$i16$GT$$GT$3shr17hebd9708b55ee0271E
	.globl	_ZN51_$LT$usize$u20$as$u20$core..ops..Shr$LT$u32$GT$$GT$3shr17ha40359375f5a13faE
	.type	_ZN51_$LT$usize$u20$as$u20$core..ops..Shr$LT$u32$GT$$GT$3shr17ha40359375f5a13faE,@function
.set _ZN51_$LT$usize$u20$as$u20$core..ops..Shr$LT$u32$GT$$GT$3shr17ha40359375f5a13faE, _ZN49_$LT$u64$u20$as$u20$core..ops..Shr$LT$i32$GT$$GT$3shr17h1ef5af7016ae8cb1E
	.globl	_ZN50_$LT$usize$u20$as$u20$core..ops..Shr$LT$i8$GT$$GT$3shr17hfa608c227cc64e39E
	.type	_ZN50_$LT$usize$u20$as$u20$core..ops..Shr$LT$i8$GT$$GT$3shr17hfa608c227cc64e39E,@function
.set _ZN50_$LT$usize$u20$as$u20$core..ops..Shr$LT$i8$GT$$GT$3shr17hfa608c227cc64e39E, _ZN48_$LT$u64$u20$as$u20$core..ops..Shr$LT$i8$GT$$GT$3shr17h240f6afcdfe6ae49E
	.globl	_ZN51_$LT$usize$u20$as$u20$core..ops..Shr$LT$i16$GT$$GT$3shr17h71f768c67a8df6d8E
	.type	_ZN51_$LT$usize$u20$as$u20$core..ops..Shr$LT$i16$GT$$GT$3shr17h71f768c67a8df6d8E,@function
.set _ZN51_$LT$usize$u20$as$u20$core..ops..Shr$LT$i16$GT$$GT$3shr17h71f768c67a8df6d8E, _ZN49_$LT$u64$u20$as$u20$core..ops..Shr$LT$i16$GT$$GT$3shr17hebd9708b55ee0271E
	.globl	_ZN51_$LT$usize$u20$as$u20$core..ops..Shr$LT$i32$GT$$GT$3shr17h183b966dbfd09e73E
	.type	_ZN51_$LT$usize$u20$as$u20$core..ops..Shr$LT$i32$GT$$GT$3shr17h183b966dbfd09e73E,@function
.set _ZN51_$LT$usize$u20$as$u20$core..ops..Shr$LT$i32$GT$$GT$3shr17h183b966dbfd09e73E, _ZN49_$LT$u64$u20$as$u20$core..ops..Shr$LT$i32$GT$$GT$3shr17h1ef5af7016ae8cb1E
	.globl	_ZN48_$LT$u16$u20$as$u20$core..ops..Shl$LT$u8$GT$$GT$3shl17h5e33a0badcde8bfbE
	.type	_ZN48_$LT$u16$u20$as$u20$core..ops..Shl$LT$u8$GT$$GT$3shl17h5e33a0badcde8bfbE,@function
.set _ZN48_$LT$u16$u20$as$u20$core..ops..Shl$LT$u8$GT$$GT$3shl17h5e33a0badcde8bfbE, _ZN48_$LT$i16$u20$as$u20$core..ops..Shl$LT$i8$GT$$GT$3shl17h7d71eaeed397404fE
	.globl	_ZN48_$LT$u32$u20$as$u20$core..ops..Shl$LT$u8$GT$$GT$3shl17h6a5e5ea23664424aE
	.type	_ZN48_$LT$u32$u20$as$u20$core..ops..Shl$LT$u8$GT$$GT$3shl17h6a5e5ea23664424aE,@function
.set _ZN48_$LT$u32$u20$as$u20$core..ops..Shl$LT$u8$GT$$GT$3shl17h6a5e5ea23664424aE, _ZN48_$LT$i32$u20$as$u20$core..ops..Shl$LT$i8$GT$$GT$3shl17h464e875af7507e58E
	.globl	_ZN49_$LT$u32$u20$as$u20$core..ops..Shl$LT$u16$GT$$GT$3shl17h87b0a2d9510926ebE
	.type	_ZN49_$LT$u32$u20$as$u20$core..ops..Shl$LT$u16$GT$$GT$3shl17h87b0a2d9510926ebE,@function
.set _ZN49_$LT$u32$u20$as$u20$core..ops..Shl$LT$u16$GT$$GT$3shl17h87b0a2d9510926ebE, _ZN49_$LT$i32$u20$as$u20$core..ops..Shl$LT$i16$GT$$GT$3shl17hd279c085a949e45fE
	.globl	_ZN48_$LT$u64$u20$as$u20$core..ops..Shl$LT$u8$GT$$GT$3shl17h1c2220c159216b3eE
	.type	_ZN48_$LT$u64$u20$as$u20$core..ops..Shl$LT$u8$GT$$GT$3shl17h1c2220c159216b3eE,@function
.set _ZN48_$LT$u64$u20$as$u20$core..ops..Shl$LT$u8$GT$$GT$3shl17h1c2220c159216b3eE, _ZN48_$LT$i64$u20$as$u20$core..ops..Shl$LT$i8$GT$$GT$3shl17h2c874dd4d53600beE
	.globl	_ZN49_$LT$u64$u20$as$u20$core..ops..Shl$LT$u16$GT$$GT$3shl17h3ef026ba2d0634a3E
	.type	_ZN49_$LT$u64$u20$as$u20$core..ops..Shl$LT$u16$GT$$GT$3shl17h3ef026ba2d0634a3E,@function
.set _ZN49_$LT$u64$u20$as$u20$core..ops..Shl$LT$u16$GT$$GT$3shl17h3ef026ba2d0634a3E, _ZN49_$LT$i64$u20$as$u20$core..ops..Shl$LT$i16$GT$$GT$3shl17h001ba275f42e8ca1E
	.globl	_ZN49_$LT$u64$u20$as$u20$core..ops..Shl$LT$u32$GT$$GT$3shl17h45e198a0c1a52917E
	.type	_ZN49_$LT$u64$u20$as$u20$core..ops..Shl$LT$u32$GT$$GT$3shl17h45e198a0c1a52917E,@function
.set _ZN49_$LT$u64$u20$as$u20$core..ops..Shl$LT$u32$GT$$GT$3shl17h45e198a0c1a52917E, _ZN49_$LT$i64$u20$as$u20$core..ops..Shl$LT$i32$GT$$GT$3shl17h76d34a6e34735152E
	.globl	_ZN52_$LT$u128$u20$as$u20$core..ops..Shl$LT$usize$GT$$GT$3shl17h57df7128ef3aa676E
	.type	_ZN52_$LT$u128$u20$as$u20$core..ops..Shl$LT$usize$GT$$GT$3shl17h57df7128ef3aa676E,@function
.set _ZN52_$LT$u128$u20$as$u20$core..ops..Shl$LT$usize$GT$$GT$3shl17h57df7128ef3aa676E, _ZN50_$LT$i128$u20$as$u20$core..ops..Shl$LT$i64$GT$$GT$3shl17hb5ce40c308276109E
	.globl	_ZN49_$LT$u128$u20$as$u20$core..ops..Shl$LT$u8$GT$$GT$3shl17h095a2c2f70608403E
	.type	_ZN49_$LT$u128$u20$as$u20$core..ops..Shl$LT$u8$GT$$GT$3shl17h095a2c2f70608403E,@function
.set _ZN49_$LT$u128$u20$as$u20$core..ops..Shl$LT$u8$GT$$GT$3shl17h095a2c2f70608403E, _ZN49_$LT$i128$u20$as$u20$core..ops..Shl$LT$i8$GT$$GT$3shl17h1ce5d2ea4f8eb4d1E
	.globl	_ZN50_$LT$u128$u20$as$u20$core..ops..Shl$LT$u16$GT$$GT$3shl17hc09ca88d5bb2a590E
	.type	_ZN50_$LT$u128$u20$as$u20$core..ops..Shl$LT$u16$GT$$GT$3shl17hc09ca88d5bb2a590E,@function
.set _ZN50_$LT$u128$u20$as$u20$core..ops..Shl$LT$u16$GT$$GT$3shl17hc09ca88d5bb2a590E, _ZN50_$LT$i128$u20$as$u20$core..ops..Shl$LT$i16$GT$$GT$3shl17h06ff238ba1e9599dE
	.globl	_ZN50_$LT$u128$u20$as$u20$core..ops..Shl$LT$u32$GT$$GT$3shl17h874d50b5a6240fb8E
	.type	_ZN50_$LT$u128$u20$as$u20$core..ops..Shl$LT$u32$GT$$GT$3shl17h874d50b5a6240fb8E,@function
.set _ZN50_$LT$u128$u20$as$u20$core..ops..Shl$LT$u32$GT$$GT$3shl17h874d50b5a6240fb8E, _ZN50_$LT$i128$u20$as$u20$core..ops..Shl$LT$i32$GT$$GT$3shl17h78e798cfaa372e68E
	.globl	_ZN50_$LT$u128$u20$as$u20$core..ops..Shl$LT$u64$GT$$GT$3shl17h4bc7500254555b41E
	.type	_ZN50_$LT$u128$u20$as$u20$core..ops..Shl$LT$u64$GT$$GT$3shl17h4bc7500254555b41E,@function
.set _ZN50_$LT$u128$u20$as$u20$core..ops..Shl$LT$u64$GT$$GT$3shl17h4bc7500254555b41E, _ZN50_$LT$i128$u20$as$u20$core..ops..Shl$LT$i64$GT$$GT$3shl17hb5ce40c308276109E
	.globl	_ZN52_$LT$u128$u20$as$u20$core..ops..Shl$LT$isize$GT$$GT$3shl17h056ea751e10d3895E
	.type	_ZN52_$LT$u128$u20$as$u20$core..ops..Shl$LT$isize$GT$$GT$3shl17h056ea751e10d3895E,@function
.set _ZN52_$LT$u128$u20$as$u20$core..ops..Shl$LT$isize$GT$$GT$3shl17h056ea751e10d3895E, _ZN50_$LT$i128$u20$as$u20$core..ops..Shl$LT$i64$GT$$GT$3shl17hb5ce40c308276109E
	.globl	_ZN50_$LT$usize$u20$as$u20$core..ops..Shl$LT$u8$GT$$GT$3shl17h48999c94f49fc200E
	.type	_ZN50_$LT$usize$u20$as$u20$core..ops..Shl$LT$u8$GT$$GT$3shl17h48999c94f49fc200E,@function
.set _ZN50_$LT$usize$u20$as$u20$core..ops..Shl$LT$u8$GT$$GT$3shl17h48999c94f49fc200E, _ZN48_$LT$i64$u20$as$u20$core..ops..Shl$LT$i8$GT$$GT$3shl17h2c874dd4d53600beE
	.globl	_ZN51_$LT$usize$u20$as$u20$core..ops..Shl$LT$u16$GT$$GT$3shl17hb367deae3ccbb5d4E
	.type	_ZN51_$LT$usize$u20$as$u20$core..ops..Shl$LT$u16$GT$$GT$3shl17hb367deae3ccbb5d4E,@function
.set _ZN51_$LT$usize$u20$as$u20$core..ops..Shl$LT$u16$GT$$GT$3shl17hb367deae3ccbb5d4E, _ZN49_$LT$i64$u20$as$u20$core..ops..Shl$LT$i16$GT$$GT$3shl17h001ba275f42e8ca1E
	.globl	_ZN51_$LT$usize$u20$as$u20$core..ops..Shl$LT$u32$GT$$GT$3shl17h4bd173d9981c0a94E
	.type	_ZN51_$LT$usize$u20$as$u20$core..ops..Shl$LT$u32$GT$$GT$3shl17h4bd173d9981c0a94E,@function
.set _ZN51_$LT$usize$u20$as$u20$core..ops..Shl$LT$u32$GT$$GT$3shl17h4bd173d9981c0a94E, _ZN49_$LT$i64$u20$as$u20$core..ops..Shl$LT$i32$GT$$GT$3shl17h76d34a6e34735152E
	.globl	_ZN50_$LT$usize$u20$as$u20$core..ops..Shl$LT$i8$GT$$GT$3shl17h96b0ae1689899bb0E
	.type	_ZN50_$LT$usize$u20$as$u20$core..ops..Shl$LT$i8$GT$$GT$3shl17h96b0ae1689899bb0E,@function
.set _ZN50_$LT$usize$u20$as$u20$core..ops..Shl$LT$i8$GT$$GT$3shl17h96b0ae1689899bb0E, _ZN48_$LT$i64$u20$as$u20$core..ops..Shl$LT$i8$GT$$GT$3shl17h2c874dd4d53600beE
	.globl	_ZN51_$LT$usize$u20$as$u20$core..ops..Shl$LT$i16$GT$$GT$3shl17h98a5341bed471201E
	.type	_ZN51_$LT$usize$u20$as$u20$core..ops..Shl$LT$i16$GT$$GT$3shl17h98a5341bed471201E,@function
.set _ZN51_$LT$usize$u20$as$u20$core..ops..Shl$LT$i16$GT$$GT$3shl17h98a5341bed471201E, _ZN49_$LT$i64$u20$as$u20$core..ops..Shl$LT$i16$GT$$GT$3shl17h001ba275f42e8ca1E
	.globl	_ZN51_$LT$usize$u20$as$u20$core..ops..Shl$LT$i32$GT$$GT$3shl17h53837971615fc48aE
	.type	_ZN51_$LT$usize$u20$as$u20$core..ops..Shl$LT$i32$GT$$GT$3shl17h53837971615fc48aE,@function
.set _ZN51_$LT$usize$u20$as$u20$core..ops..Shl$LT$i32$GT$$GT$3shl17h53837971615fc48aE, _ZN49_$LT$i64$u20$as$u20$core..ops..Shl$LT$i32$GT$$GT$3shl17h76d34a6e34735152E
	.globl	_ZN48_$LT$u16$u20$as$u20$core..ops..Shl$LT$i8$GT$$GT$3shl17hc178b069da557375E
	.type	_ZN48_$LT$u16$u20$as$u20$core..ops..Shl$LT$i8$GT$$GT$3shl17hc178b069da557375E,@function
.set _ZN48_$LT$u16$u20$as$u20$core..ops..Shl$LT$i8$GT$$GT$3shl17hc178b069da557375E, _ZN48_$LT$i16$u20$as$u20$core..ops..Shl$LT$i8$GT$$GT$3shl17h7d71eaeed397404fE
	.globl	_ZN48_$LT$i16$u20$as$u20$core..ops..Shl$LT$u8$GT$$GT$3shl17h7f6f4e591a1d834aE
	.type	_ZN48_$LT$i16$u20$as$u20$core..ops..Shl$LT$u8$GT$$GT$3shl17h7f6f4e591a1d834aE,@function
.set _ZN48_$LT$i16$u20$as$u20$core..ops..Shl$LT$u8$GT$$GT$3shl17h7f6f4e591a1d834aE, _ZN48_$LT$i16$u20$as$u20$core..ops..Shl$LT$i8$GT$$GT$3shl17h7d71eaeed397404fE
	.globl	_ZN48_$LT$u32$u20$as$u20$core..ops..Shl$LT$i8$GT$$GT$3shl17h69cb59d5ed1c68f8E
	.type	_ZN48_$LT$u32$u20$as$u20$core..ops..Shl$LT$i8$GT$$GT$3shl17h69cb59d5ed1c68f8E,@function
.set _ZN48_$LT$u32$u20$as$u20$core..ops..Shl$LT$i8$GT$$GT$3shl17h69cb59d5ed1c68f8E, _ZN48_$LT$i32$u20$as$u20$core..ops..Shl$LT$i8$GT$$GT$3shl17h464e875af7507e58E
	.globl	_ZN49_$LT$u32$u20$as$u20$core..ops..Shl$LT$i16$GT$$GT$3shl17h14ba8c471e5f4036E
	.type	_ZN49_$LT$u32$u20$as$u20$core..ops..Shl$LT$i16$GT$$GT$3shl17h14ba8c471e5f4036E,@function
.set _ZN49_$LT$u32$u20$as$u20$core..ops..Shl$LT$i16$GT$$GT$3shl17h14ba8c471e5f4036E, _ZN49_$LT$i32$u20$as$u20$core..ops..Shl$LT$i16$GT$$GT$3shl17hd279c085a949e45fE
	.globl	_ZN48_$LT$i32$u20$as$u20$core..ops..Shl$LT$u8$GT$$GT$3shl17h716c836db8da1f39E
	.type	_ZN48_$LT$i32$u20$as$u20$core..ops..Shl$LT$u8$GT$$GT$3shl17h716c836db8da1f39E,@function
.set _ZN48_$LT$i32$u20$as$u20$core..ops..Shl$LT$u8$GT$$GT$3shl17h716c836db8da1f39E, _ZN48_$LT$i32$u20$as$u20$core..ops..Shl$LT$i8$GT$$GT$3shl17h464e875af7507e58E
	.globl	_ZN49_$LT$i32$u20$as$u20$core..ops..Shl$LT$u16$GT$$GT$3shl17h8cfae06b971335b8E
	.type	_ZN49_$LT$i32$u20$as$u20$core..ops..Shl$LT$u16$GT$$GT$3shl17h8cfae06b971335b8E,@function
.set _ZN49_$LT$i32$u20$as$u20$core..ops..Shl$LT$u16$GT$$GT$3shl17h8cfae06b971335b8E, _ZN49_$LT$i32$u20$as$u20$core..ops..Shl$LT$i16$GT$$GT$3shl17hd279c085a949e45fE
	.globl	_ZN48_$LT$u64$u20$as$u20$core..ops..Shl$LT$i8$GT$$GT$3shl17h2573151bd1794b80E
	.type	_ZN48_$LT$u64$u20$as$u20$core..ops..Shl$LT$i8$GT$$GT$3shl17h2573151bd1794b80E,@function
.set _ZN48_$LT$u64$u20$as$u20$core..ops..Shl$LT$i8$GT$$GT$3shl17h2573151bd1794b80E, _ZN48_$LT$i64$u20$as$u20$core..ops..Shl$LT$i8$GT$$GT$3shl17h2c874dd4d53600beE
	.globl	_ZN49_$LT$u64$u20$as$u20$core..ops..Shl$LT$i16$GT$$GT$3shl17ha9ad04434046f3aeE
	.type	_ZN49_$LT$u64$u20$as$u20$core..ops..Shl$LT$i16$GT$$GT$3shl17ha9ad04434046f3aeE,@function
.set _ZN49_$LT$u64$u20$as$u20$core..ops..Shl$LT$i16$GT$$GT$3shl17ha9ad04434046f3aeE, _ZN49_$LT$i64$u20$as$u20$core..ops..Shl$LT$i16$GT$$GT$3shl17h001ba275f42e8ca1E
	.globl	_ZN49_$LT$u64$u20$as$u20$core..ops..Shl$LT$i32$GT$$GT$3shl17hda3ba362f74b13cfE
	.type	_ZN49_$LT$u64$u20$as$u20$core..ops..Shl$LT$i32$GT$$GT$3shl17hda3ba362f74b13cfE,@function
.set _ZN49_$LT$u64$u20$as$u20$core..ops..Shl$LT$i32$GT$$GT$3shl17hda3ba362f74b13cfE, _ZN49_$LT$i64$u20$as$u20$core..ops..Shl$LT$i32$GT$$GT$3shl17h76d34a6e34735152E
	.globl	_ZN48_$LT$i64$u20$as$u20$core..ops..Shl$LT$u8$GT$$GT$3shl17h1963730d996bf1c1E
	.type	_ZN48_$LT$i64$u20$as$u20$core..ops..Shl$LT$u8$GT$$GT$3shl17h1963730d996bf1c1E,@function
.set _ZN48_$LT$i64$u20$as$u20$core..ops..Shl$LT$u8$GT$$GT$3shl17h1963730d996bf1c1E, _ZN48_$LT$i64$u20$as$u20$core..ops..Shl$LT$i8$GT$$GT$3shl17h2c874dd4d53600beE
	.globl	_ZN49_$LT$i64$u20$as$u20$core..ops..Shl$LT$u16$GT$$GT$3shl17h8abea636c5a4f33aE
	.type	_ZN49_$LT$i64$u20$as$u20$core..ops..Shl$LT$u16$GT$$GT$3shl17h8abea636c5a4f33aE,@function
.set _ZN49_$LT$i64$u20$as$u20$core..ops..Shl$LT$u16$GT$$GT$3shl17h8abea636c5a4f33aE, _ZN49_$LT$i64$u20$as$u20$core..ops..Shl$LT$i16$GT$$GT$3shl17h001ba275f42e8ca1E
	.globl	_ZN49_$LT$i64$u20$as$u20$core..ops..Shl$LT$u32$GT$$GT$3shl17h2497bfe620fad0afE
	.type	_ZN49_$LT$i64$u20$as$u20$core..ops..Shl$LT$u32$GT$$GT$3shl17h2497bfe620fad0afE,@function
.set _ZN49_$LT$i64$u20$as$u20$core..ops..Shl$LT$u32$GT$$GT$3shl17h2497bfe620fad0afE, _ZN49_$LT$i64$u20$as$u20$core..ops..Shl$LT$i32$GT$$GT$3shl17h76d34a6e34735152E
	.globl	_ZN49_$LT$u128$u20$as$u20$core..ops..Shl$LT$i8$GT$$GT$3shl17h3acda6dffd0dfa43E
	.type	_ZN49_$LT$u128$u20$as$u20$core..ops..Shl$LT$i8$GT$$GT$3shl17h3acda6dffd0dfa43E,@function
.set _ZN49_$LT$u128$u20$as$u20$core..ops..Shl$LT$i8$GT$$GT$3shl17h3acda6dffd0dfa43E, _ZN49_$LT$i128$u20$as$u20$core..ops..Shl$LT$i8$GT$$GT$3shl17h1ce5d2ea4f8eb4d1E
	.globl	_ZN50_$LT$u128$u20$as$u20$core..ops..Shl$LT$i16$GT$$GT$3shl17hcaf7c249e40b06d7E
	.type	_ZN50_$LT$u128$u20$as$u20$core..ops..Shl$LT$i16$GT$$GT$3shl17hcaf7c249e40b06d7E,@function
.set _ZN50_$LT$u128$u20$as$u20$core..ops..Shl$LT$i16$GT$$GT$3shl17hcaf7c249e40b06d7E, _ZN50_$LT$i128$u20$as$u20$core..ops..Shl$LT$i16$GT$$GT$3shl17h06ff238ba1e9599dE
	.globl	_ZN50_$LT$u128$u20$as$u20$core..ops..Shl$LT$i32$GT$$GT$3shl17h56df8a2ee5739cb6E
	.type	_ZN50_$LT$u128$u20$as$u20$core..ops..Shl$LT$i32$GT$$GT$3shl17h56df8a2ee5739cb6E,@function
.set _ZN50_$LT$u128$u20$as$u20$core..ops..Shl$LT$i32$GT$$GT$3shl17h56df8a2ee5739cb6E, _ZN50_$LT$i128$u20$as$u20$core..ops..Shl$LT$i32$GT$$GT$3shl17h78e798cfaa372e68E
	.globl	_ZN50_$LT$u128$u20$as$u20$core..ops..Shl$LT$i64$GT$$GT$3shl17hbee77beb040e9818E
	.type	_ZN50_$LT$u128$u20$as$u20$core..ops..Shl$LT$i64$GT$$GT$3shl17hbee77beb040e9818E,@function
.set _ZN50_$LT$u128$u20$as$u20$core..ops..Shl$LT$i64$GT$$GT$3shl17hbee77beb040e9818E, _ZN50_$LT$i128$u20$as$u20$core..ops..Shl$LT$i64$GT$$GT$3shl17hb5ce40c308276109E
	.globl	_ZN52_$LT$i128$u20$as$u20$core..ops..Shl$LT$usize$GT$$GT$3shl17h45b5ab05a1ff53c5E
	.type	_ZN52_$LT$i128$u20$as$u20$core..ops..Shl$LT$usize$GT$$GT$3shl17h45b5ab05a1ff53c5E,@function
.set _ZN52_$LT$i128$u20$as$u20$core..ops..Shl$LT$usize$GT$$GT$3shl17h45b5ab05a1ff53c5E, _ZN50_$LT$i128$u20$as$u20$core..ops..Shl$LT$i64$GT$$GT$3shl17hb5ce40c308276109E
	.globl	_ZN49_$LT$i128$u20$as$u20$core..ops..Shl$LT$u8$GT$$GT$3shl17h3ab0b485875b92f1E
	.type	_ZN49_$LT$i128$u20$as$u20$core..ops..Shl$LT$u8$GT$$GT$3shl17h3ab0b485875b92f1E,@function
.set _ZN49_$LT$i128$u20$as$u20$core..ops..Shl$LT$u8$GT$$GT$3shl17h3ab0b485875b92f1E, _ZN49_$LT$i128$u20$as$u20$core..ops..Shl$LT$i8$GT$$GT$3shl17h1ce5d2ea4f8eb4d1E
	.globl	_ZN50_$LT$i128$u20$as$u20$core..ops..Shl$LT$u16$GT$$GT$3shl17h016d9cbd031b148aE
	.type	_ZN50_$LT$i128$u20$as$u20$core..ops..Shl$LT$u16$GT$$GT$3shl17h016d9cbd031b148aE,@function
.set _ZN50_$LT$i128$u20$as$u20$core..ops..Shl$LT$u16$GT$$GT$3shl17h016d9cbd031b148aE, _ZN50_$LT$i128$u20$as$u20$core..ops..Shl$LT$i16$GT$$GT$3shl17h06ff238ba1e9599dE
	.globl	_ZN50_$LT$i128$u20$as$u20$core..ops..Shl$LT$u32$GT$$GT$3shl17h30103767f7e47c9fE
	.type	_ZN50_$LT$i128$u20$as$u20$core..ops..Shl$LT$u32$GT$$GT$3shl17h30103767f7e47c9fE,@function
.set _ZN50_$LT$i128$u20$as$u20$core..ops..Shl$LT$u32$GT$$GT$3shl17h30103767f7e47c9fE, _ZN50_$LT$i128$u20$as$u20$core..ops..Shl$LT$i32$GT$$GT$3shl17h78e798cfaa372e68E
	.globl	_ZN50_$LT$i128$u20$as$u20$core..ops..Shl$LT$u64$GT$$GT$3shl17h95598c397d2e20e5E
	.type	_ZN50_$LT$i128$u20$as$u20$core..ops..Shl$LT$u64$GT$$GT$3shl17h95598c397d2e20e5E,@function
.set _ZN50_$LT$i128$u20$as$u20$core..ops..Shl$LT$u64$GT$$GT$3shl17h95598c397d2e20e5E, _ZN50_$LT$i128$u20$as$u20$core..ops..Shl$LT$i64$GT$$GT$3shl17hb5ce40c308276109E
	.globl	_ZN52_$LT$i128$u20$as$u20$core..ops..Shl$LT$isize$GT$$GT$3shl17h74d2eb67a59ccec2E
	.type	_ZN52_$LT$i128$u20$as$u20$core..ops..Shl$LT$isize$GT$$GT$3shl17h74d2eb67a59ccec2E,@function
.set _ZN52_$LT$i128$u20$as$u20$core..ops..Shl$LT$isize$GT$$GT$3shl17h74d2eb67a59ccec2E, _ZN50_$LT$i128$u20$as$u20$core..ops..Shl$LT$i64$GT$$GT$3shl17hb5ce40c308276109E
	.globl	_ZN50_$LT$isize$u20$as$u20$core..ops..Shl$LT$u8$GT$$GT$3shl17h07b71b736395f9f5E
	.type	_ZN50_$LT$isize$u20$as$u20$core..ops..Shl$LT$u8$GT$$GT$3shl17h07b71b736395f9f5E,@function
.set _ZN50_$LT$isize$u20$as$u20$core..ops..Shl$LT$u8$GT$$GT$3shl17h07b71b736395f9f5E, _ZN48_$LT$i64$u20$as$u20$core..ops..Shl$LT$i8$GT$$GT$3shl17h2c874dd4d53600beE
	.globl	_ZN51_$LT$isize$u20$as$u20$core..ops..Shl$LT$u16$GT$$GT$3shl17ha2a998f0da125e2aE
	.type	_ZN51_$LT$isize$u20$as$u20$core..ops..Shl$LT$u16$GT$$GT$3shl17ha2a998f0da125e2aE,@function
.set _ZN51_$LT$isize$u20$as$u20$core..ops..Shl$LT$u16$GT$$GT$3shl17ha2a998f0da125e2aE, _ZN49_$LT$i64$u20$as$u20$core..ops..Shl$LT$i16$GT$$GT$3shl17h001ba275f42e8ca1E
	.globl	_ZN51_$LT$isize$u20$as$u20$core..ops..Shl$LT$u32$GT$$GT$3shl17hb7d55d06ffa2b340E
	.type	_ZN51_$LT$isize$u20$as$u20$core..ops..Shl$LT$u32$GT$$GT$3shl17hb7d55d06ffa2b340E,@function
.set _ZN51_$LT$isize$u20$as$u20$core..ops..Shl$LT$u32$GT$$GT$3shl17hb7d55d06ffa2b340E, _ZN49_$LT$i64$u20$as$u20$core..ops..Shl$LT$i32$GT$$GT$3shl17h76d34a6e34735152E
	.globl	_ZN50_$LT$isize$u20$as$u20$core..ops..Shl$LT$i8$GT$$GT$3shl17h75390d910526f037E
	.type	_ZN50_$LT$isize$u20$as$u20$core..ops..Shl$LT$i8$GT$$GT$3shl17h75390d910526f037E,@function
.set _ZN50_$LT$isize$u20$as$u20$core..ops..Shl$LT$i8$GT$$GT$3shl17h75390d910526f037E, _ZN48_$LT$i64$u20$as$u20$core..ops..Shl$LT$i8$GT$$GT$3shl17h2c874dd4d53600beE
	.globl	_ZN51_$LT$isize$u20$as$u20$core..ops..Shl$LT$i16$GT$$GT$3shl17hdace4405c6cbe1c2E
	.type	_ZN51_$LT$isize$u20$as$u20$core..ops..Shl$LT$i16$GT$$GT$3shl17hdace4405c6cbe1c2E,@function
.set _ZN51_$LT$isize$u20$as$u20$core..ops..Shl$LT$i16$GT$$GT$3shl17hdace4405c6cbe1c2E, _ZN49_$LT$i64$u20$as$u20$core..ops..Shl$LT$i16$GT$$GT$3shl17h001ba275f42e8ca1E
	.globl	_ZN51_$LT$isize$u20$as$u20$core..ops..Shl$LT$i32$GT$$GT$3shl17h5b4a192ac1bf608fE
	.type	_ZN51_$LT$isize$u20$as$u20$core..ops..Shl$LT$i32$GT$$GT$3shl17h5b4a192ac1bf608fE,@function
.set _ZN51_$LT$isize$u20$as$u20$core..ops..Shl$LT$i32$GT$$GT$3shl17h5b4a192ac1bf608fE, _ZN49_$LT$i64$u20$as$u20$core..ops..Shl$LT$i32$GT$$GT$3shl17h76d34a6e34735152E
	.globl	_ZN43_$LT$usize$u20$as$u20$core..ops..BitAnd$GT$6bitand17hc0d1fb66f7917150E
	.type	_ZN43_$LT$usize$u20$as$u20$core..ops..BitAnd$GT$6bitand17hc0d1fb66f7917150E,@function
.set _ZN43_$LT$usize$u20$as$u20$core..ops..BitAnd$GT$6bitand17hc0d1fb66f7917150E, _ZN41_$LT$i64$u20$as$u20$core..ops..BitAnd$GT$6bitand17ha8c77cefc7a9e442E
	.globl	_ZN40_$LT$u8$u20$as$u20$core..ops..BitAnd$GT$6bitand17h5c27b2c80b5ae417E
	.type	_ZN40_$LT$u8$u20$as$u20$core..ops..BitAnd$GT$6bitand17h5c27b2c80b5ae417E,@function
.set _ZN40_$LT$u8$u20$as$u20$core..ops..BitAnd$GT$6bitand17h5c27b2c80b5ae417E, _ZN40_$LT$i8$u20$as$u20$core..ops..BitAnd$GT$6bitand17h372e3b47db1013feE
	.globl	_ZN41_$LT$u16$u20$as$u20$core..ops..BitAnd$GT$6bitand17hb450ba404f6dacd7E
	.type	_ZN41_$LT$u16$u20$as$u20$core..ops..BitAnd$GT$6bitand17hb450ba404f6dacd7E,@function
.set _ZN41_$LT$u16$u20$as$u20$core..ops..BitAnd$GT$6bitand17hb450ba404f6dacd7E, _ZN41_$LT$i16$u20$as$u20$core..ops..BitAnd$GT$6bitand17hb069a50fd9bf7e8fE
	.globl	_ZN41_$LT$u32$u20$as$u20$core..ops..BitAnd$GT$6bitand17h5e1f6868aad26f58E
	.type	_ZN41_$LT$u32$u20$as$u20$core..ops..BitAnd$GT$6bitand17h5e1f6868aad26f58E,@function
.set _ZN41_$LT$u32$u20$as$u20$core..ops..BitAnd$GT$6bitand17h5e1f6868aad26f58E, _ZN41_$LT$i32$u20$as$u20$core..ops..BitAnd$GT$6bitand17hb0d28d48d002271dE
	.globl	_ZN41_$LT$u64$u20$as$u20$core..ops..BitAnd$GT$6bitand17h8de08d7e39d124f6E
	.type	_ZN41_$LT$u64$u20$as$u20$core..ops..BitAnd$GT$6bitand17h8de08d7e39d124f6E,@function
.set _ZN41_$LT$u64$u20$as$u20$core..ops..BitAnd$GT$6bitand17h8de08d7e39d124f6E, _ZN41_$LT$i64$u20$as$u20$core..ops..BitAnd$GT$6bitand17ha8c77cefc7a9e442E
	.globl	_ZN42_$LT$u128$u20$as$u20$core..ops..BitAnd$GT$6bitand17h2b6c0fc3370159e1E
	.type	_ZN42_$LT$u128$u20$as$u20$core..ops..BitAnd$GT$6bitand17h2b6c0fc3370159e1E,@function
.set _ZN42_$LT$u128$u20$as$u20$core..ops..BitAnd$GT$6bitand17h2b6c0fc3370159e1E, _ZN42_$LT$i128$u20$as$u20$core..ops..BitAnd$GT$6bitand17hd4790ce503c3433dE
	.globl	_ZN43_$LT$isize$u20$as$u20$core..ops..BitAnd$GT$6bitand17hd5a3f33018c09203E
	.type	_ZN43_$LT$isize$u20$as$u20$core..ops..BitAnd$GT$6bitand17hd5a3f33018c09203E,@function
.set _ZN43_$LT$isize$u20$as$u20$core..ops..BitAnd$GT$6bitand17hd5a3f33018c09203E, _ZN41_$LT$i64$u20$as$u20$core..ops..BitAnd$GT$6bitand17ha8c77cefc7a9e442E
	.globl	_ZN43_$LT$usize$u20$as$u20$core..ops..BitXor$GT$6bitxor17hfce30385c570b140E
	.type	_ZN43_$LT$usize$u20$as$u20$core..ops..BitXor$GT$6bitxor17hfce30385c570b140E,@function
.set _ZN43_$LT$usize$u20$as$u20$core..ops..BitXor$GT$6bitxor17hfce30385c570b140E, _ZN41_$LT$i64$u20$as$u20$core..ops..BitXor$GT$6bitxor17hd7674a2c8ad83ea7E
	.globl	_ZN40_$LT$u8$u20$as$u20$core..ops..BitXor$GT$6bitxor17he4ede561f80334d8E
	.type	_ZN40_$LT$u8$u20$as$u20$core..ops..BitXor$GT$6bitxor17he4ede561f80334d8E,@function
.set _ZN40_$LT$u8$u20$as$u20$core..ops..BitXor$GT$6bitxor17he4ede561f80334d8E, _ZN40_$LT$i8$u20$as$u20$core..ops..BitXor$GT$6bitxor17h9ee432e833d73140E
	.globl	_ZN41_$LT$u16$u20$as$u20$core..ops..BitXor$GT$6bitxor17he6ff17e5cbd5fe16E
	.type	_ZN41_$LT$u16$u20$as$u20$core..ops..BitXor$GT$6bitxor17he6ff17e5cbd5fe16E,@function
.set _ZN41_$LT$u16$u20$as$u20$core..ops..BitXor$GT$6bitxor17he6ff17e5cbd5fe16E, _ZN41_$LT$i16$u20$as$u20$core..ops..BitXor$GT$6bitxor17hbd0d853906ef6394E
	.globl	_ZN41_$LT$u32$u20$as$u20$core..ops..BitXor$GT$6bitxor17h000ef2d4872b5c56E
	.type	_ZN41_$LT$u32$u20$as$u20$core..ops..BitXor$GT$6bitxor17h000ef2d4872b5c56E,@function
.set _ZN41_$LT$u32$u20$as$u20$core..ops..BitXor$GT$6bitxor17h000ef2d4872b5c56E, _ZN41_$LT$i32$u20$as$u20$core..ops..BitXor$GT$6bitxor17h276acd24193f009dE
	.globl	_ZN41_$LT$u64$u20$as$u20$core..ops..BitXor$GT$6bitxor17ha2b22c64000caa16E
	.type	_ZN41_$LT$u64$u20$as$u20$core..ops..BitXor$GT$6bitxor17ha2b22c64000caa16E,@function
.set _ZN41_$LT$u64$u20$as$u20$core..ops..BitXor$GT$6bitxor17ha2b22c64000caa16E, _ZN41_$LT$i64$u20$as$u20$core..ops..BitXor$GT$6bitxor17hd7674a2c8ad83ea7E
	.globl	_ZN42_$LT$u128$u20$as$u20$core..ops..BitXor$GT$6bitxor17h2363853a5239f0a7E
	.type	_ZN42_$LT$u128$u20$as$u20$core..ops..BitXor$GT$6bitxor17h2363853a5239f0a7E,@function
.set _ZN42_$LT$u128$u20$as$u20$core..ops..BitXor$GT$6bitxor17h2363853a5239f0a7E, _ZN42_$LT$i128$u20$as$u20$core..ops..BitXor$GT$6bitxor17hfe14d8382ae09bacE
	.globl	_ZN43_$LT$isize$u20$as$u20$core..ops..BitXor$GT$6bitxor17hb510870ffc7c00f4E
	.type	_ZN43_$LT$isize$u20$as$u20$core..ops..BitXor$GT$6bitxor17hb510870ffc7c00f4E,@function
.set _ZN43_$LT$isize$u20$as$u20$core..ops..BitXor$GT$6bitxor17hb510870ffc7c00f4E, _ZN41_$LT$i64$u20$as$u20$core..ops..BitXor$GT$6bitxor17hd7674a2c8ad83ea7E
	.globl	_ZN43_$LT$u8$u20$as$u20$core..cmp..PartialEq$GT$2eq17h2e3b02e44208c355E
	.type	_ZN43_$LT$u8$u20$as$u20$core..cmp..PartialEq$GT$2eq17h2e3b02e44208c355E,@function
.set _ZN43_$LT$u8$u20$as$u20$core..cmp..PartialEq$GT$2eq17h2e3b02e44208c355E, _ZN43_$LT$i8$u20$as$u20$core..cmp..PartialEq$GT$2eq17h540ee63a1513c4bfE
	.globl	_ZN44_$LT$u16$u20$as$u20$core..cmp..PartialEq$GT$2eq17h7dd73cdd1dfbafcdE
	.type	_ZN44_$LT$u16$u20$as$u20$core..cmp..PartialEq$GT$2eq17h7dd73cdd1dfbafcdE,@function
.set _ZN44_$LT$u16$u20$as$u20$core..cmp..PartialEq$GT$2eq17h7dd73cdd1dfbafcdE, _ZN44_$LT$i16$u20$as$u20$core..cmp..PartialEq$GT$2eq17he1eed0a8d2f7cdafE
	.globl	_ZN44_$LT$u32$u20$as$u20$core..cmp..PartialEq$GT$2eq17h898f014d3a6b89d5E
	.type	_ZN44_$LT$u32$u20$as$u20$core..cmp..PartialEq$GT$2eq17h898f014d3a6b89d5E,@function
.set _ZN44_$LT$u32$u20$as$u20$core..cmp..PartialEq$GT$2eq17h898f014d3a6b89d5E, _ZN44_$LT$i32$u20$as$u20$core..cmp..PartialEq$GT$2eq17h506aacb5f59ef873E
	.globl	_ZN44_$LT$u64$u20$as$u20$core..cmp..PartialEq$GT$2eq17h24daab26aef36295E
	.type	_ZN44_$LT$u64$u20$as$u20$core..cmp..PartialEq$GT$2eq17h24daab26aef36295E,@function
.set _ZN44_$LT$u64$u20$as$u20$core..cmp..PartialEq$GT$2eq17h24daab26aef36295E, _ZN44_$LT$i64$u20$as$u20$core..cmp..PartialEq$GT$2eq17h3761ba94017af9d8E
	.globl	_ZN45_$LT$u128$u20$as$u20$core..cmp..PartialEq$GT$2eq17he987a950392777a7E
	.type	_ZN45_$LT$u128$u20$as$u20$core..cmp..PartialEq$GT$2eq17he987a950392777a7E,@function
.set _ZN45_$LT$u128$u20$as$u20$core..cmp..PartialEq$GT$2eq17he987a950392777a7E, _ZN45_$LT$i128$u20$as$u20$core..cmp..PartialEq$GT$2eq17he56f825c189abdf3E
	.globl	_ZN46_$LT$usize$u20$as$u20$core..cmp..PartialEq$GT$2eq17h5177c776e186fb08E
	.type	_ZN46_$LT$usize$u20$as$u20$core..cmp..PartialEq$GT$2eq17h5177c776e186fb08E,@function
.set _ZN46_$LT$usize$u20$as$u20$core..cmp..PartialEq$GT$2eq17h5177c776e186fb08E, _ZN44_$LT$i64$u20$as$u20$core..cmp..PartialEq$GT$2eq17h3761ba94017af9d8E
	.globl	_ZN47_$LT$usize$u20$as$u20$core..cmp..PartialOrd$GT$2le17hb3405780d867bbe0E
	.type	_ZN47_$LT$usize$u20$as$u20$core..cmp..PartialOrd$GT$2le17hb3405780d867bbe0E,@function
.set _ZN47_$LT$usize$u20$as$u20$core..cmp..PartialOrd$GT$2le17hb3405780d867bbe0E, _ZN45_$LT$u64$u20$as$u20$core..cmp..PartialOrd$GT$2le17h8b3a48f2a3dd1afdE
	.globl	_ZN47_$LT$usize$u20$as$u20$core..cmp..PartialOrd$GT$2lt17h15916f19942217b2E
	.type	_ZN47_$LT$usize$u20$as$u20$core..cmp..PartialOrd$GT$2lt17h15916f19942217b2E,@function
.set _ZN47_$LT$usize$u20$as$u20$core..cmp..PartialOrd$GT$2lt17h15916f19942217b2E, _ZN45_$LT$u64$u20$as$u20$core..cmp..PartialOrd$GT$2lt17heba21fc55a3241d6E
	.globl	_ZN47_$LT$usize$u20$as$u20$core..cmp..PartialOrd$GT$2ge17h817c99877b9bf11dE
	.type	_ZN47_$LT$usize$u20$as$u20$core..cmp..PartialOrd$GT$2ge17h817c99877b9bf11dE,@function
.set _ZN47_$LT$usize$u20$as$u20$core..cmp..PartialOrd$GT$2ge17h817c99877b9bf11dE, _ZN45_$LT$u64$u20$as$u20$core..cmp..PartialOrd$GT$2ge17h2816fe24e9b82872E
	.globl	_ZN47_$LT$usize$u20$as$u20$core..cmp..PartialOrd$GT$2gt17hfa05fdd64911fb6fE
	.type	_ZN47_$LT$usize$u20$as$u20$core..cmp..PartialOrd$GT$2gt17hfa05fdd64911fb6fE,@function
.set _ZN47_$LT$usize$u20$as$u20$core..cmp..PartialOrd$GT$2gt17hfa05fdd64911fb6fE, _ZN45_$LT$u64$u20$as$u20$core..cmp..PartialOrd$GT$2gt17hf2a243b1eb837a41E
	.globl	_ZN46_$LT$isize$u20$as$u20$core..cmp..PartialEq$GT$2eq17h5822c58583341e9cE
	.type	_ZN46_$LT$isize$u20$as$u20$core..cmp..PartialEq$GT$2eq17h5822c58583341e9cE,@function
.set _ZN46_$LT$isize$u20$as$u20$core..cmp..PartialEq$GT$2eq17h5822c58583341e9cE, _ZN44_$LT$i64$u20$as$u20$core..cmp..PartialEq$GT$2eq17h3761ba94017af9d8E
	.globl	_ZN47_$LT$isize$u20$as$u20$core..cmp..PartialOrd$GT$2le17hf4c87d6ff90f4ce2E
	.type	_ZN47_$LT$isize$u20$as$u20$core..cmp..PartialOrd$GT$2le17hf4c87d6ff90f4ce2E,@function
.set _ZN47_$LT$isize$u20$as$u20$core..cmp..PartialOrd$GT$2le17hf4c87d6ff90f4ce2E, _ZN45_$LT$i64$u20$as$u20$core..cmp..PartialOrd$GT$2le17h63e67cdb54217856E
	.globl	_ZN47_$LT$isize$u20$as$u20$core..cmp..PartialOrd$GT$2lt17h2c1aae7453f615d4E
	.type	_ZN47_$LT$isize$u20$as$u20$core..cmp..PartialOrd$GT$2lt17h2c1aae7453f615d4E,@function
.set _ZN47_$LT$isize$u20$as$u20$core..cmp..PartialOrd$GT$2lt17h2c1aae7453f615d4E, _ZN45_$LT$i64$u20$as$u20$core..cmp..PartialOrd$GT$2lt17he76ba084c627707aE
	.globl	_ZN47_$LT$isize$u20$as$u20$core..cmp..PartialOrd$GT$2ge17h84d3946349823b5fE
	.type	_ZN47_$LT$isize$u20$as$u20$core..cmp..PartialOrd$GT$2ge17h84d3946349823b5fE,@function
.set _ZN47_$LT$isize$u20$as$u20$core..cmp..PartialOrd$GT$2ge17h84d3946349823b5fE, _ZN45_$LT$i64$u20$as$u20$core..cmp..PartialOrd$GT$2ge17ha78db7fec7fa5f7cE
	.globl	_ZN47_$LT$isize$u20$as$u20$core..cmp..PartialOrd$GT$2gt17h4a26e5588db5f17cE
	.type	_ZN47_$LT$isize$u20$as$u20$core..cmp..PartialOrd$GT$2gt17h4a26e5588db5f17cE,@function
.set _ZN47_$LT$isize$u20$as$u20$core..cmp..PartialOrd$GT$2gt17h4a26e5588db5f17cE, _ZN45_$LT$i64$u20$as$u20$core..cmp..PartialOrd$GT$2gt17h999215bc091ded86E
	.globl	_ZN46_$LT$$RF$usize$u20$as$u20$core..ops..BitOr$GT$5bitor17h31d127a12ba68e42E
	.type	_ZN46_$LT$$RF$usize$u20$as$u20$core..ops..BitOr$GT$5bitor17h31d127a12ba68e42E,@function
.set _ZN46_$LT$$RF$usize$u20$as$u20$core..ops..BitOr$GT$5bitor17h31d127a12ba68e42E, _ZN44_$LT$$RF$i64$u20$as$u20$core..ops..BitOr$GT$5bitor17hfe9e86d8c7100eb6E
	.globl	_ZN43_$LT$$RF$u8$u20$as$u20$core..ops..BitOr$GT$5bitor17hcec1f7ea0f317756E
	.type	_ZN43_$LT$$RF$u8$u20$as$u20$core..ops..BitOr$GT$5bitor17hcec1f7ea0f317756E,@function
.set _ZN43_$LT$$RF$u8$u20$as$u20$core..ops..BitOr$GT$5bitor17hcec1f7ea0f317756E, _ZN43_$LT$$RF$i8$u20$as$u20$core..ops..BitOr$GT$5bitor17hb17d4620aea9fddeE
	.globl	_ZN44_$LT$$RF$u16$u20$as$u20$core..ops..BitOr$GT$5bitor17hdcf0db2467a2f4f3E
	.type	_ZN44_$LT$$RF$u16$u20$as$u20$core..ops..BitOr$GT$5bitor17hdcf0db2467a2f4f3E,@function
.set _ZN44_$LT$$RF$u16$u20$as$u20$core..ops..BitOr$GT$5bitor17hdcf0db2467a2f4f3E, _ZN44_$LT$$RF$i16$u20$as$u20$core..ops..BitOr$GT$5bitor17ha386b4907a2183beE
	.globl	_ZN44_$LT$$RF$u32$u20$as$u20$core..ops..BitOr$GT$5bitor17haeabcbc6e7b5c25cE
	.type	_ZN44_$LT$$RF$u32$u20$as$u20$core..ops..BitOr$GT$5bitor17haeabcbc6e7b5c25cE,@function
.set _ZN44_$LT$$RF$u32$u20$as$u20$core..ops..BitOr$GT$5bitor17haeabcbc6e7b5c25cE, _ZN44_$LT$$RF$i32$u20$as$u20$core..ops..BitOr$GT$5bitor17h3e9d239c567ceb5fE
	.globl	_ZN44_$LT$$RF$u64$u20$as$u20$core..ops..BitOr$GT$5bitor17hb7ed1b2a979f4ff6E
	.type	_ZN44_$LT$$RF$u64$u20$as$u20$core..ops..BitOr$GT$5bitor17hb7ed1b2a979f4ff6E,@function
.set _ZN44_$LT$$RF$u64$u20$as$u20$core..ops..BitOr$GT$5bitor17hb7ed1b2a979f4ff6E, _ZN44_$LT$$RF$i64$u20$as$u20$core..ops..BitOr$GT$5bitor17hfe9e86d8c7100eb6E
	.globl	_ZN45_$LT$$RF$u128$u20$as$u20$core..ops..BitOr$GT$5bitor17ha193c5f4f408d60eE
	.type	_ZN45_$LT$$RF$u128$u20$as$u20$core..ops..BitOr$GT$5bitor17ha193c5f4f408d60eE,@function
.set _ZN45_$LT$$RF$u128$u20$as$u20$core..ops..BitOr$GT$5bitor17ha193c5f4f408d60eE, _ZN45_$LT$$RF$i128$u20$as$u20$core..ops..BitOr$GT$5bitor17h817f483197142852E
	.globl	_ZN46_$LT$$RF$isize$u20$as$u20$core..ops..BitOr$GT$5bitor17h44602ae5699f9692E
	.type	_ZN46_$LT$$RF$isize$u20$as$u20$core..ops..BitOr$GT$5bitor17h44602ae5699f9692E,@function
.set _ZN46_$LT$$RF$isize$u20$as$u20$core..ops..BitOr$GT$5bitor17h44602ae5699f9692E, _ZN44_$LT$$RF$i64$u20$as$u20$core..ops..BitOr$GT$5bitor17hfe9e86d8c7100eb6E
	.globl	_ZN50_$LT$u8$u20$as$u20$core..ops..Shr$LT$usize$GT$$GT$3shr17hc4e1dd327d2526b6E
	.type	_ZN50_$LT$u8$u20$as$u20$core..ops..Shr$LT$usize$GT$$GT$3shr17hc4e1dd327d2526b6E,@function
.set _ZN50_$LT$u8$u20$as$u20$core..ops..Shr$LT$usize$GT$$GT$3shr17hc4e1dd327d2526b6E, _ZN48_$LT$u8$u20$as$u20$core..ops..Shr$LT$i64$GT$$GT$3shr17h3e26e42603b13629E
	.globl	_ZN48_$LT$u8$u20$as$u20$core..ops..Shr$LT$u16$GT$$GT$3shr17hd05ffe2b80aceba2E
	.type	_ZN48_$LT$u8$u20$as$u20$core..ops..Shr$LT$u16$GT$$GT$3shr17hd05ffe2b80aceba2E,@function
.set _ZN48_$LT$u8$u20$as$u20$core..ops..Shr$LT$u16$GT$$GT$3shr17hd05ffe2b80aceba2E, _ZN48_$LT$u8$u20$as$u20$core..ops..Shr$LT$i16$GT$$GT$3shr17ha8374cff36c100ceE
	.globl	_ZN48_$LT$u8$u20$as$u20$core..ops..Shr$LT$u32$GT$$GT$3shr17hab6d1dc5ea61f548E
	.type	_ZN48_$LT$u8$u20$as$u20$core..ops..Shr$LT$u32$GT$$GT$3shr17hab6d1dc5ea61f548E,@function
.set _ZN48_$LT$u8$u20$as$u20$core..ops..Shr$LT$u32$GT$$GT$3shr17hab6d1dc5ea61f548E, _ZN48_$LT$u8$u20$as$u20$core..ops..Shr$LT$i32$GT$$GT$3shr17h176d16bde7336cefE
	.globl	_ZN48_$LT$u8$u20$as$u20$core..ops..Shr$LT$u64$GT$$GT$3shr17h54bf4204033854dfE
	.type	_ZN48_$LT$u8$u20$as$u20$core..ops..Shr$LT$u64$GT$$GT$3shr17h54bf4204033854dfE,@function
.set _ZN48_$LT$u8$u20$as$u20$core..ops..Shr$LT$u64$GT$$GT$3shr17h54bf4204033854dfE, _ZN48_$LT$u8$u20$as$u20$core..ops..Shr$LT$i64$GT$$GT$3shr17h3e26e42603b13629E
	.globl	_ZN49_$LT$u8$u20$as$u20$core..ops..Shr$LT$u128$GT$$GT$3shr17hcf8804a435422ee7E
	.type	_ZN49_$LT$u8$u20$as$u20$core..ops..Shr$LT$u128$GT$$GT$3shr17hcf8804a435422ee7E,@function
.set _ZN49_$LT$u8$u20$as$u20$core..ops..Shr$LT$u128$GT$$GT$3shr17hcf8804a435422ee7E, _ZN49_$LT$u8$u20$as$u20$core..ops..Shr$LT$i128$GT$$GT$3shr17h11be3fb9e6e691a9E
	.globl	_ZN50_$LT$u8$u20$as$u20$core..ops..Shr$LT$isize$GT$$GT$3shr17h01a48d01bfafbe55E
	.type	_ZN50_$LT$u8$u20$as$u20$core..ops..Shr$LT$isize$GT$$GT$3shr17h01a48d01bfafbe55E,@function
.set _ZN50_$LT$u8$u20$as$u20$core..ops..Shr$LT$isize$GT$$GT$3shr17h01a48d01bfafbe55E, _ZN48_$LT$u8$u20$as$u20$core..ops..Shr$LT$i64$GT$$GT$3shr17h3e26e42603b13629E
	.globl	_ZN51_$LT$u16$u20$as$u20$core..ops..Shr$LT$usize$GT$$GT$3shr17h0e577d979b2d8373E
	.type	_ZN51_$LT$u16$u20$as$u20$core..ops..Shr$LT$usize$GT$$GT$3shr17h0e577d979b2d8373E,@function
.set _ZN51_$LT$u16$u20$as$u20$core..ops..Shr$LT$usize$GT$$GT$3shr17h0e577d979b2d8373E, _ZN49_$LT$u16$u20$as$u20$core..ops..Shr$LT$i64$GT$$GT$3shr17h25e9a34f1d93a1e9E
	.globl	_ZN49_$LT$u16$u20$as$u20$core..ops..Shr$LT$u32$GT$$GT$3shr17h4959678576c09644E
	.type	_ZN49_$LT$u16$u20$as$u20$core..ops..Shr$LT$u32$GT$$GT$3shr17h4959678576c09644E,@function
.set _ZN49_$LT$u16$u20$as$u20$core..ops..Shr$LT$u32$GT$$GT$3shr17h4959678576c09644E, _ZN49_$LT$u16$u20$as$u20$core..ops..Shr$LT$i32$GT$$GT$3shr17h7a6f968d3919a622E
	.globl	_ZN49_$LT$u16$u20$as$u20$core..ops..Shr$LT$u64$GT$$GT$3shr17h88297d5861164552E
	.type	_ZN49_$LT$u16$u20$as$u20$core..ops..Shr$LT$u64$GT$$GT$3shr17h88297d5861164552E,@function
.set _ZN49_$LT$u16$u20$as$u20$core..ops..Shr$LT$u64$GT$$GT$3shr17h88297d5861164552E, _ZN49_$LT$u16$u20$as$u20$core..ops..Shr$LT$i64$GT$$GT$3shr17h25e9a34f1d93a1e9E
	.globl	_ZN50_$LT$u16$u20$as$u20$core..ops..Shr$LT$u128$GT$$GT$3shr17h60e586e637fa3742E
	.type	_ZN50_$LT$u16$u20$as$u20$core..ops..Shr$LT$u128$GT$$GT$3shr17h60e586e637fa3742E,@function
.set _ZN50_$LT$u16$u20$as$u20$core..ops..Shr$LT$u128$GT$$GT$3shr17h60e586e637fa3742E, _ZN50_$LT$u16$u20$as$u20$core..ops..Shr$LT$i128$GT$$GT$3shr17h0f0d0cf414ff9c2aE
	.globl	_ZN51_$LT$u16$u20$as$u20$core..ops..Shr$LT$isize$GT$$GT$3shr17hb10fc3f84c0b764dE
	.type	_ZN51_$LT$u16$u20$as$u20$core..ops..Shr$LT$isize$GT$$GT$3shr17hb10fc3f84c0b764dE,@function
.set _ZN51_$LT$u16$u20$as$u20$core..ops..Shr$LT$isize$GT$$GT$3shr17hb10fc3f84c0b764dE, _ZN49_$LT$u16$u20$as$u20$core..ops..Shr$LT$i64$GT$$GT$3shr17h25e9a34f1d93a1e9E
	.globl	_ZN51_$LT$u32$u20$as$u20$core..ops..Shr$LT$usize$GT$$GT$3shr17hd26fb55aae554843E
	.type	_ZN51_$LT$u32$u20$as$u20$core..ops..Shr$LT$usize$GT$$GT$3shr17hd26fb55aae554843E,@function
.set _ZN51_$LT$u32$u20$as$u20$core..ops..Shr$LT$usize$GT$$GT$3shr17hd26fb55aae554843E, _ZN49_$LT$u32$u20$as$u20$core..ops..Shr$LT$i64$GT$$GT$3shr17h1eedc984dbe002a5E
	.globl	_ZN49_$LT$u32$u20$as$u20$core..ops..Shr$LT$u64$GT$$GT$3shr17h13f6f8fea49460aeE
	.type	_ZN49_$LT$u32$u20$as$u20$core..ops..Shr$LT$u64$GT$$GT$3shr17h13f6f8fea49460aeE,@function
.set _ZN49_$LT$u32$u20$as$u20$core..ops..Shr$LT$u64$GT$$GT$3shr17h13f6f8fea49460aeE, _ZN49_$LT$u32$u20$as$u20$core..ops..Shr$LT$i64$GT$$GT$3shr17h1eedc984dbe002a5E
	.globl	_ZN50_$LT$u32$u20$as$u20$core..ops..Shr$LT$u128$GT$$GT$3shr17hd41eea8bbf521bb4E
	.type	_ZN50_$LT$u32$u20$as$u20$core..ops..Shr$LT$u128$GT$$GT$3shr17hd41eea8bbf521bb4E,@function
.set _ZN50_$LT$u32$u20$as$u20$core..ops..Shr$LT$u128$GT$$GT$3shr17hd41eea8bbf521bb4E, _ZN50_$LT$u32$u20$as$u20$core..ops..Shr$LT$i128$GT$$GT$3shr17h81207c6c54515fdcE
	.globl	_ZN51_$LT$u32$u20$as$u20$core..ops..Shr$LT$isize$GT$$GT$3shr17h4db448801bb687beE
	.type	_ZN51_$LT$u32$u20$as$u20$core..ops..Shr$LT$isize$GT$$GT$3shr17h4db448801bb687beE,@function
.set _ZN51_$LT$u32$u20$as$u20$core..ops..Shr$LT$isize$GT$$GT$3shr17h4db448801bb687beE, _ZN49_$LT$u32$u20$as$u20$core..ops..Shr$LT$i64$GT$$GT$3shr17h1eedc984dbe002a5E
	.globl	_ZN50_$LT$u64$u20$as$u20$core..ops..Shr$LT$u128$GT$$GT$3shr17he06e496589ca195aE
	.type	_ZN50_$LT$u64$u20$as$u20$core..ops..Shr$LT$u128$GT$$GT$3shr17he06e496589ca195aE,@function
.set _ZN50_$LT$u64$u20$as$u20$core..ops..Shr$LT$u128$GT$$GT$3shr17he06e496589ca195aE, _ZN50_$LT$u64$u20$as$u20$core..ops..Shr$LT$i128$GT$$GT$3shr17h31deb6dbac145d88E
	.globl	_ZN52_$LT$usize$u20$as$u20$core..ops..Shr$LT$u128$GT$$GT$3shr17hfcd18959e929fa1cE
	.type	_ZN52_$LT$usize$u20$as$u20$core..ops..Shr$LT$u128$GT$$GT$3shr17hfcd18959e929fa1cE,@function
.set _ZN52_$LT$usize$u20$as$u20$core..ops..Shr$LT$u128$GT$$GT$3shr17hfcd18959e929fa1cE, _ZN50_$LT$u64$u20$as$u20$core..ops..Shr$LT$i128$GT$$GT$3shr17h31deb6dbac145d88E
	.globl	_ZN52_$LT$usize$u20$as$u20$core..ops..Shr$LT$i128$GT$$GT$3shr17h78f49891a30abbfdE
	.type	_ZN52_$LT$usize$u20$as$u20$core..ops..Shr$LT$i128$GT$$GT$3shr17h78f49891a30abbfdE,@function
.set _ZN52_$LT$usize$u20$as$u20$core..ops..Shr$LT$i128$GT$$GT$3shr17h78f49891a30abbfdE, _ZN50_$LT$u64$u20$as$u20$core..ops..Shr$LT$i128$GT$$GT$3shr17h31deb6dbac145d88E
	.globl	_ZN44_$LT$$RF$usize$u20$as$u20$core..ops..Add$GT$3add17hade179ed52e3c438E
	.type	_ZN44_$LT$$RF$usize$u20$as$u20$core..ops..Add$GT$3add17hade179ed52e3c438E,@function
.set _ZN44_$LT$$RF$usize$u20$as$u20$core..ops..Add$GT$3add17hade179ed52e3c438E, _ZN42_$LT$$RF$i64$u20$as$u20$core..ops..Add$GT$3add17h0d8b992eb34ddf26E
	.globl	_ZN41_$LT$$RF$u8$u20$as$u20$core..ops..Add$GT$3add17hab1652de579c6318E
	.type	_ZN41_$LT$$RF$u8$u20$as$u20$core..ops..Add$GT$3add17hab1652de579c6318E,@function
.set _ZN41_$LT$$RF$u8$u20$as$u20$core..ops..Add$GT$3add17hab1652de579c6318E, _ZN41_$LT$$RF$i8$u20$as$u20$core..ops..Add$GT$3add17hcb85bd6a65eb578fE
	.globl	_ZN42_$LT$$RF$u16$u20$as$u20$core..ops..Add$GT$3add17h282ed38dd1e4fc66E
	.type	_ZN42_$LT$$RF$u16$u20$as$u20$core..ops..Add$GT$3add17h282ed38dd1e4fc66E,@function
.set _ZN42_$LT$$RF$u16$u20$as$u20$core..ops..Add$GT$3add17h282ed38dd1e4fc66E, _ZN42_$LT$$RF$i16$u20$as$u20$core..ops..Add$GT$3add17h49f9ac0a0b1663baE
	.globl	_ZN42_$LT$$RF$u32$u20$as$u20$core..ops..Add$GT$3add17hbf27fe4eb5c9bf0fE
	.type	_ZN42_$LT$$RF$u32$u20$as$u20$core..ops..Add$GT$3add17hbf27fe4eb5c9bf0fE,@function
.set _ZN42_$LT$$RF$u32$u20$as$u20$core..ops..Add$GT$3add17hbf27fe4eb5c9bf0fE, _ZN42_$LT$$RF$i32$u20$as$u20$core..ops..Add$GT$3add17h2fe02e7799f2fea9E
	.globl	_ZN42_$LT$$RF$u64$u20$as$u20$core..ops..Add$GT$3add17h009f4c89b37b1a24E
	.type	_ZN42_$LT$$RF$u64$u20$as$u20$core..ops..Add$GT$3add17h009f4c89b37b1a24E,@function
.set _ZN42_$LT$$RF$u64$u20$as$u20$core..ops..Add$GT$3add17h009f4c89b37b1a24E, _ZN42_$LT$$RF$i64$u20$as$u20$core..ops..Add$GT$3add17h0d8b992eb34ddf26E
	.globl	_ZN43_$LT$$RF$u128$u20$as$u20$core..ops..Add$GT$3add17h256004d443c116cfE
	.type	_ZN43_$LT$$RF$u128$u20$as$u20$core..ops..Add$GT$3add17h256004d443c116cfE,@function
.set _ZN43_$LT$$RF$u128$u20$as$u20$core..ops..Add$GT$3add17h256004d443c116cfE, _ZN43_$LT$$RF$i128$u20$as$u20$core..ops..Add$GT$3add17haf8a4a623b8bd304E
	.globl	_ZN44_$LT$$RF$isize$u20$as$u20$core..ops..Add$GT$3add17h85c38433e4e8cb34E
	.type	_ZN44_$LT$$RF$isize$u20$as$u20$core..ops..Add$GT$3add17h85c38433e4e8cb34E,@function
.set _ZN44_$LT$$RF$isize$u20$as$u20$core..ops..Add$GT$3add17h85c38433e4e8cb34E, _ZN42_$LT$$RF$i64$u20$as$u20$core..ops..Add$GT$3add17h0d8b992eb34ddf26E
	.globl	_ZN40_$LT$usize$u20$as$u20$core..ops..Div$GT$3div17h1248bd5633130b87E
	.type	_ZN40_$LT$usize$u20$as$u20$core..ops..Div$GT$3div17h1248bd5633130b87E,@function
.set _ZN40_$LT$usize$u20$as$u20$core..ops..Div$GT$3div17h1248bd5633130b87E, _ZN38_$LT$u64$u20$as$u20$core..ops..Div$GT$3div17h27bf0c7e6859a59fE
	.globl	_ZN45_$LT$usize$u20$as$u20$core..marker..Clone$GT$5clone17h11ca21d821932f4aE
	.type	_ZN45_$LT$usize$u20$as$u20$core..marker..Clone$GT$5clone17h11ca21d821932f4aE,@function
.set _ZN45_$LT$usize$u20$as$u20$core..marker..Clone$GT$5clone17h11ca21d821932f4aE, _ZN43_$LT$i64$u20$as$u20$core..marker..Clone$GT$5clone17h3becefb5ac2b2fa5E
	.globl	_ZN42_$LT$u8$u20$as$u20$core..marker..Clone$GT$5clone17h8e5d8c9aea37fcdaE
	.type	_ZN42_$LT$u8$u20$as$u20$core..marker..Clone$GT$5clone17h8e5d8c9aea37fcdaE,@function
.set _ZN42_$LT$u8$u20$as$u20$core..marker..Clone$GT$5clone17h8e5d8c9aea37fcdaE, _ZN42_$LT$i8$u20$as$u20$core..marker..Clone$GT$5clone17hfc7859c37076c6efE
	.globl	_ZN43_$LT$u16$u20$as$u20$core..marker..Clone$GT$5clone17h8599283a8e98a74dE
	.type	_ZN43_$LT$u16$u20$as$u20$core..marker..Clone$GT$5clone17h8599283a8e98a74dE,@function
.set _ZN43_$LT$u16$u20$as$u20$core..marker..Clone$GT$5clone17h8599283a8e98a74dE, _ZN43_$LT$i16$u20$as$u20$core..marker..Clone$GT$5clone17hb127f1b0f469c1c9E
	.globl	_ZN43_$LT$u32$u20$as$u20$core..marker..Clone$GT$5clone17hcc74c6419b868addE
	.type	_ZN43_$LT$u32$u20$as$u20$core..marker..Clone$GT$5clone17hcc74c6419b868addE,@function
.set _ZN43_$LT$u32$u20$as$u20$core..marker..Clone$GT$5clone17hcc74c6419b868addE, _ZN43_$LT$i32$u20$as$u20$core..marker..Clone$GT$5clone17h65051a56882c9c8bE
	.globl	_ZN43_$LT$u64$u20$as$u20$core..marker..Clone$GT$5clone17h53022d48cfe072d3E
	.type	_ZN43_$LT$u64$u20$as$u20$core..marker..Clone$GT$5clone17h53022d48cfe072d3E,@function
.set _ZN43_$LT$u64$u20$as$u20$core..marker..Clone$GT$5clone17h53022d48cfe072d3E, _ZN43_$LT$i64$u20$as$u20$core..marker..Clone$GT$5clone17h3becefb5ac2b2fa5E
	.globl	_ZN44_$LT$u128$u20$as$u20$core..marker..Clone$GT$5clone17h36cc4cba03dd608bE
	.type	_ZN44_$LT$u128$u20$as$u20$core..marker..Clone$GT$5clone17h36cc4cba03dd608bE,@function
.set _ZN44_$LT$u128$u20$as$u20$core..marker..Clone$GT$5clone17h36cc4cba03dd608bE, _ZN44_$LT$i128$u20$as$u20$core..marker..Clone$GT$5clone17h4e50a70425ef5a84E
	.globl	_ZN45_$LT$isize$u20$as$u20$core..marker..Clone$GT$5clone17h1ebf34bf5d922305E
	.type	_ZN45_$LT$isize$u20$as$u20$core..marker..Clone$GT$5clone17h1ebf34bf5d922305E,@function
.set _ZN45_$LT$isize$u20$as$u20$core..marker..Clone$GT$5clone17h1ebf34bf5d922305E, _ZN43_$LT$i64$u20$as$u20$core..marker..Clone$GT$5clone17h3becefb5ac2b2fa5E
	.globl	_ZN44_$LT$$RF$usize$u20$as$u20$core..ops..Sub$GT$3sub17h66c4710a1355e6d6E
	.type	_ZN44_$LT$$RF$usize$u20$as$u20$core..ops..Sub$GT$3sub17h66c4710a1355e6d6E,@function
.set _ZN44_$LT$$RF$usize$u20$as$u20$core..ops..Sub$GT$3sub17h66c4710a1355e6d6E, _ZN42_$LT$$RF$i64$u20$as$u20$core..ops..Sub$GT$3sub17h34177e74edc1fa04E
	.globl	_ZN41_$LT$$RF$u8$u20$as$u20$core..ops..Sub$GT$3sub17h4728e753d4f59d10E
	.type	_ZN41_$LT$$RF$u8$u20$as$u20$core..ops..Sub$GT$3sub17h4728e753d4f59d10E,@function
.set _ZN41_$LT$$RF$u8$u20$as$u20$core..ops..Sub$GT$3sub17h4728e753d4f59d10E, _ZN41_$LT$$RF$i8$u20$as$u20$core..ops..Sub$GT$3sub17h2abc932e496a71c3E
	.globl	_ZN42_$LT$$RF$u16$u20$as$u20$core..ops..Sub$GT$3sub17h8a7bb817ae2c9b75E
	.type	_ZN42_$LT$$RF$u16$u20$as$u20$core..ops..Sub$GT$3sub17h8a7bb817ae2c9b75E,@function
.set _ZN42_$LT$$RF$u16$u20$as$u20$core..ops..Sub$GT$3sub17h8a7bb817ae2c9b75E, _ZN42_$LT$$RF$i16$u20$as$u20$core..ops..Sub$GT$3sub17h20440f16ba586c78E
	.globl	_ZN42_$LT$$RF$u32$u20$as$u20$core..ops..Sub$GT$3sub17h2d4c49c9d019adf8E
	.type	_ZN42_$LT$$RF$u32$u20$as$u20$core..ops..Sub$GT$3sub17h2d4c49c9d019adf8E,@function
.set _ZN42_$LT$$RF$u32$u20$as$u20$core..ops..Sub$GT$3sub17h2d4c49c9d019adf8E, _ZN42_$LT$$RF$i32$u20$as$u20$core..ops..Sub$GT$3sub17had52596de510f3f4E
	.globl	_ZN42_$LT$$RF$u64$u20$as$u20$core..ops..Sub$GT$3sub17h5c5ab659652f4529E
	.type	_ZN42_$LT$$RF$u64$u20$as$u20$core..ops..Sub$GT$3sub17h5c5ab659652f4529E,@function
.set _ZN42_$LT$$RF$u64$u20$as$u20$core..ops..Sub$GT$3sub17h5c5ab659652f4529E, _ZN42_$LT$$RF$i64$u20$as$u20$core..ops..Sub$GT$3sub17h34177e74edc1fa04E
	.globl	_ZN43_$LT$$RF$u128$u20$as$u20$core..ops..Sub$GT$3sub17h0c172b92c05205f1E
	.type	_ZN43_$LT$$RF$u128$u20$as$u20$core..ops..Sub$GT$3sub17h0c172b92c05205f1E,@function
.set _ZN43_$LT$$RF$u128$u20$as$u20$core..ops..Sub$GT$3sub17h0c172b92c05205f1E, _ZN43_$LT$$RF$i128$u20$as$u20$core..ops..Sub$GT$3sub17hf04fe78761586f2eE
	.globl	_ZN44_$LT$$RF$isize$u20$as$u20$core..ops..Sub$GT$3sub17h125645dd3f700de6E
	.type	_ZN44_$LT$$RF$isize$u20$as$u20$core..ops..Sub$GT$3sub17h125645dd3f700de6E,@function
.set _ZN44_$LT$$RF$isize$u20$as$u20$core..ops..Sub$GT$3sub17h125645dd3f700de6E, _ZN42_$LT$$RF$i64$u20$as$u20$core..ops..Sub$GT$3sub17h34177e74edc1fa04E
	.globl	_ZN42_$LT$usize$u20$as$u20$core..ops..BitOr$GT$5bitor17h584fc87782beb1f0E
	.type	_ZN42_$LT$usize$u20$as$u20$core..ops..BitOr$GT$5bitor17h584fc87782beb1f0E,@function
.set _ZN42_$LT$usize$u20$as$u20$core..ops..BitOr$GT$5bitor17h584fc87782beb1f0E, _ZN40_$LT$i64$u20$as$u20$core..ops..BitOr$GT$5bitor17hb169c63a4210f27bE
	.globl	_ZN39_$LT$u8$u20$as$u20$core..ops..BitOr$GT$5bitor17h6191a732a8aa4815E
	.type	_ZN39_$LT$u8$u20$as$u20$core..ops..BitOr$GT$5bitor17h6191a732a8aa4815E,@function
.set _ZN39_$LT$u8$u20$as$u20$core..ops..BitOr$GT$5bitor17h6191a732a8aa4815E, _ZN39_$LT$i8$u20$as$u20$core..ops..BitOr$GT$5bitor17hcb8033c95fb2b810E
	.globl	_ZN40_$LT$u16$u20$as$u20$core..ops..BitOr$GT$5bitor17h07585f8477fb9d57E
	.type	_ZN40_$LT$u16$u20$as$u20$core..ops..BitOr$GT$5bitor17h07585f8477fb9d57E,@function
.set _ZN40_$LT$u16$u20$as$u20$core..ops..BitOr$GT$5bitor17h07585f8477fb9d57E, _ZN40_$LT$i16$u20$as$u20$core..ops..BitOr$GT$5bitor17hf12dbe50d3866bb0E
	.globl	_ZN40_$LT$u32$u20$as$u20$core..ops..BitOr$GT$5bitor17h2bb5de1e04621e86E
	.type	_ZN40_$LT$u32$u20$as$u20$core..ops..BitOr$GT$5bitor17h2bb5de1e04621e86E,@function
.set _ZN40_$LT$u32$u20$as$u20$core..ops..BitOr$GT$5bitor17h2bb5de1e04621e86E, _ZN40_$LT$i32$u20$as$u20$core..ops..BitOr$GT$5bitor17h680fcee5b6ea2af9E
	.globl	_ZN40_$LT$u64$u20$as$u20$core..ops..BitOr$GT$5bitor17h52f0a999a073bba4E
	.type	_ZN40_$LT$u64$u20$as$u20$core..ops..BitOr$GT$5bitor17h52f0a999a073bba4E,@function
.set _ZN40_$LT$u64$u20$as$u20$core..ops..BitOr$GT$5bitor17h52f0a999a073bba4E, _ZN40_$LT$i64$u20$as$u20$core..ops..BitOr$GT$5bitor17hb169c63a4210f27bE
	.globl	_ZN41_$LT$u128$u20$as$u20$core..ops..BitOr$GT$5bitor17hf9c721a68ecdf283E
	.type	_ZN41_$LT$u128$u20$as$u20$core..ops..BitOr$GT$5bitor17hf9c721a68ecdf283E,@function
.set _ZN41_$LT$u128$u20$as$u20$core..ops..BitOr$GT$5bitor17hf9c721a68ecdf283E, _ZN41_$LT$i128$u20$as$u20$core..ops..BitOr$GT$5bitor17h1dcf0e75073fee3bE
	.globl	_ZN42_$LT$isize$u20$as$u20$core..ops..BitOr$GT$5bitor17h6a9be858f9ed3769E
	.type	_ZN42_$LT$isize$u20$as$u20$core..ops..BitOr$GT$5bitor17h6a9be858f9ed3769E,@function
.set _ZN42_$LT$isize$u20$as$u20$core..ops..BitOr$GT$5bitor17h6a9be858f9ed3769E, _ZN40_$LT$i64$u20$as$u20$core..ops..BitOr$GT$5bitor17hb169c63a4210f27bE
	.globl	_ZN37_$LT$u8$u20$as$u20$core..ops..Not$GT$3not17hbcf1304c4244eb64E
	.type	_ZN37_$LT$u8$u20$as$u20$core..ops..Not$GT$3not17hbcf1304c4244eb64E,@function
.set _ZN37_$LT$u8$u20$as$u20$core..ops..Not$GT$3not17hbcf1304c4244eb64E, _ZN37_$LT$i8$u20$as$u20$core..ops..Not$GT$3not17hddf6e4766e93fda5E
	.globl	_ZN38_$LT$u16$u20$as$u20$core..ops..Not$GT$3not17hcf7fed3c7df5e11cE
	.type	_ZN38_$LT$u16$u20$as$u20$core..ops..Not$GT$3not17hcf7fed3c7df5e11cE,@function
.set _ZN38_$LT$u16$u20$as$u20$core..ops..Not$GT$3not17hcf7fed3c7df5e11cE, _ZN38_$LT$i16$u20$as$u20$core..ops..Not$GT$3not17hdca3691dba40b231E
	.globl	_ZN38_$LT$u32$u20$as$u20$core..ops..Not$GT$3not17hf7db5ae3f6cc73a6E
	.type	_ZN38_$LT$u32$u20$as$u20$core..ops..Not$GT$3not17hf7db5ae3f6cc73a6E,@function
.set _ZN38_$LT$u32$u20$as$u20$core..ops..Not$GT$3not17hf7db5ae3f6cc73a6E, _ZN38_$LT$i32$u20$as$u20$core..ops..Not$GT$3not17hc53ebdb4b240b918E
	.globl	_ZN38_$LT$u64$u20$as$u20$core..ops..Not$GT$3not17hd246c10023e9e7a9E
	.type	_ZN38_$LT$u64$u20$as$u20$core..ops..Not$GT$3not17hd246c10023e9e7a9E,@function
.set _ZN38_$LT$u64$u20$as$u20$core..ops..Not$GT$3not17hd246c10023e9e7a9E, _ZN38_$LT$i64$u20$as$u20$core..ops..Not$GT$3not17hb84b1b48d2e07ce6E
	.globl	_ZN40_$LT$usize$u20$as$u20$core..ops..Not$GT$3not17ha90cf1d059df94aaE
	.type	_ZN40_$LT$usize$u20$as$u20$core..ops..Not$GT$3not17ha90cf1d059df94aaE,@function
.set _ZN40_$LT$usize$u20$as$u20$core..ops..Not$GT$3not17ha90cf1d059df94aaE, _ZN38_$LT$i64$u20$as$u20$core..ops..Not$GT$3not17hb84b1b48d2e07ce6E
	.globl	_ZN40_$LT$isize$u20$as$u20$core..ops..Not$GT$3not17hac3a7f17d0fd6f16E
	.type	_ZN40_$LT$isize$u20$as$u20$core..ops..Not$GT$3not17hac3a7f17d0fd6f16E,@function
.set _ZN40_$LT$isize$u20$as$u20$core..ops..Not$GT$3not17hac3a7f17d0fd6f16E, _ZN38_$LT$i64$u20$as$u20$core..ops..Not$GT$3not17hb84b1b48d2e07ce6E
	.globl	_ZN39_$LT$u128$u20$as$u20$core..ops..Not$GT$3not17h7b87a9b61d843704E
	.type	_ZN39_$LT$u128$u20$as$u20$core..ops..Not$GT$3not17h7b87a9b61d843704E,@function
.set _ZN39_$LT$u128$u20$as$u20$core..ops..Not$GT$3not17h7b87a9b61d843704E, _ZN39_$LT$i128$u20$as$u20$core..ops..Not$GT$3not17h2bc6914e74b6bf76E
	.globl	_ZN47_$LT$$RF$usize$u20$as$u20$core..ops..BitXor$GT$6bitxor17hc703c12856e5b7e0E
	.type	_ZN47_$LT$$RF$usize$u20$as$u20$core..ops..BitXor$GT$6bitxor17hc703c12856e5b7e0E,@function
.set _ZN47_$LT$$RF$usize$u20$as$u20$core..ops..BitXor$GT$6bitxor17hc703c12856e5b7e0E, _ZN45_$LT$$RF$i64$u20$as$u20$core..ops..BitXor$GT$6bitxor17hbb69074b8b1679ddE
	.globl	_ZN44_$LT$$RF$u8$u20$as$u20$core..ops..BitXor$GT$6bitxor17hbbebc797052508c4E
	.type	_ZN44_$LT$$RF$u8$u20$as$u20$core..ops..BitXor$GT$6bitxor17hbbebc797052508c4E,@function
.set _ZN44_$LT$$RF$u8$u20$as$u20$core..ops..BitXor$GT$6bitxor17hbbebc797052508c4E, _ZN44_$LT$$RF$i8$u20$as$u20$core..ops..BitXor$GT$6bitxor17h7496014419fafc78E
	.globl	_ZN45_$LT$$RF$u16$u20$as$u20$core..ops..BitXor$GT$6bitxor17h44b9b7eb7cdadbdaE
	.type	_ZN45_$LT$$RF$u16$u20$as$u20$core..ops..BitXor$GT$6bitxor17h44b9b7eb7cdadbdaE,@function
.set _ZN45_$LT$$RF$u16$u20$as$u20$core..ops..BitXor$GT$6bitxor17h44b9b7eb7cdadbdaE, _ZN45_$LT$$RF$i16$u20$as$u20$core..ops..BitXor$GT$6bitxor17h8a3099090a94a06cE
	.globl	_ZN45_$LT$$RF$u32$u20$as$u20$core..ops..BitXor$GT$6bitxor17hd0de2fae3bd7b163E
	.type	_ZN45_$LT$$RF$u32$u20$as$u20$core..ops..BitXor$GT$6bitxor17hd0de2fae3bd7b163E,@function
.set _ZN45_$LT$$RF$u32$u20$as$u20$core..ops..BitXor$GT$6bitxor17hd0de2fae3bd7b163E, _ZN45_$LT$$RF$i32$u20$as$u20$core..ops..BitXor$GT$6bitxor17h1d7db78639405581E
	.globl	_ZN45_$LT$$RF$u64$u20$as$u20$core..ops..BitXor$GT$6bitxor17h2d0d8eeebbb635f4E
	.type	_ZN45_$LT$$RF$u64$u20$as$u20$core..ops..BitXor$GT$6bitxor17h2d0d8eeebbb635f4E,@function
.set _ZN45_$LT$$RF$u64$u20$as$u20$core..ops..BitXor$GT$6bitxor17h2d0d8eeebbb635f4E, _ZN45_$LT$$RF$i64$u20$as$u20$core..ops..BitXor$GT$6bitxor17hbb69074b8b1679ddE
	.globl	_ZN46_$LT$$RF$u128$u20$as$u20$core..ops..BitXor$GT$6bitxor17h5d07f9fa964f9176E
	.type	_ZN46_$LT$$RF$u128$u20$as$u20$core..ops..BitXor$GT$6bitxor17h5d07f9fa964f9176E,@function
.set _ZN46_$LT$$RF$u128$u20$as$u20$core..ops..BitXor$GT$6bitxor17h5d07f9fa964f9176E, _ZN46_$LT$$RF$i128$u20$as$u20$core..ops..BitXor$GT$6bitxor17h9faa47919d6aac07E
	.globl	_ZN47_$LT$$RF$isize$u20$as$u20$core..ops..BitXor$GT$6bitxor17h5984c3077a1f87faE
	.type	_ZN47_$LT$$RF$isize$u20$as$u20$core..ops..BitXor$GT$6bitxor17h5984c3077a1f87faE,@function
.set _ZN47_$LT$$RF$isize$u20$as$u20$core..ops..BitXor$GT$6bitxor17h5984c3077a1f87faE, _ZN45_$LT$$RF$i64$u20$as$u20$core..ops..BitXor$GT$6bitxor17hbb69074b8b1679ddE
	.globl	_ZN48_$LT$i16$u20$as$u20$core..ops..Shr$LT$u8$GT$$GT$3shr17hd8b6a6fcb0bc6713E
	.type	_ZN48_$LT$i16$u20$as$u20$core..ops..Shr$LT$u8$GT$$GT$3shr17hd8b6a6fcb0bc6713E,@function
.set _ZN48_$LT$i16$u20$as$u20$core..ops..Shr$LT$u8$GT$$GT$3shr17hd8b6a6fcb0bc6713E, _ZN48_$LT$i16$u20$as$u20$core..ops..Shr$LT$i8$GT$$GT$3shr17hb20a568f9fc4c097E
	.globl	_ZN48_$LT$i32$u20$as$u20$core..ops..Shr$LT$u8$GT$$GT$3shr17hb3344c9515e1e543E
	.type	_ZN48_$LT$i32$u20$as$u20$core..ops..Shr$LT$u8$GT$$GT$3shr17hb3344c9515e1e543E,@function
.set _ZN48_$LT$i32$u20$as$u20$core..ops..Shr$LT$u8$GT$$GT$3shr17hb3344c9515e1e543E, _ZN48_$LT$i32$u20$as$u20$core..ops..Shr$LT$i8$GT$$GT$3shr17h336eaf555dd76f53E
	.globl	_ZN49_$LT$i32$u20$as$u20$core..ops..Shr$LT$u16$GT$$GT$3shr17h707dc5791884ab98E
	.type	_ZN49_$LT$i32$u20$as$u20$core..ops..Shr$LT$u16$GT$$GT$3shr17h707dc5791884ab98E,@function
.set _ZN49_$LT$i32$u20$as$u20$core..ops..Shr$LT$u16$GT$$GT$3shr17h707dc5791884ab98E, _ZN49_$LT$i32$u20$as$u20$core..ops..Shr$LT$i16$GT$$GT$3shr17hf33947c66acf937eE
	.globl	_ZN48_$LT$i64$u20$as$u20$core..ops..Shr$LT$u8$GT$$GT$3shr17he6569b5401b007edE
	.type	_ZN48_$LT$i64$u20$as$u20$core..ops..Shr$LT$u8$GT$$GT$3shr17he6569b5401b007edE,@function
.set _ZN48_$LT$i64$u20$as$u20$core..ops..Shr$LT$u8$GT$$GT$3shr17he6569b5401b007edE, _ZN48_$LT$i64$u20$as$u20$core..ops..Shr$LT$i8$GT$$GT$3shr17hc89f437f1eb0a631E
	.globl	_ZN49_$LT$i64$u20$as$u20$core..ops..Shr$LT$u16$GT$$GT$3shr17h7facf68733e29e86E
	.type	_ZN49_$LT$i64$u20$as$u20$core..ops..Shr$LT$u16$GT$$GT$3shr17h7facf68733e29e86E,@function
.set _ZN49_$LT$i64$u20$as$u20$core..ops..Shr$LT$u16$GT$$GT$3shr17h7facf68733e29e86E, _ZN49_$LT$i64$u20$as$u20$core..ops..Shr$LT$i16$GT$$GT$3shr17hf69e45283918a1f1E
	.globl	_ZN49_$LT$i64$u20$as$u20$core..ops..Shr$LT$u32$GT$$GT$3shr17hd994a7bfffb96b80E
	.type	_ZN49_$LT$i64$u20$as$u20$core..ops..Shr$LT$u32$GT$$GT$3shr17hd994a7bfffb96b80E,@function
.set _ZN49_$LT$i64$u20$as$u20$core..ops..Shr$LT$u32$GT$$GT$3shr17hd994a7bfffb96b80E, _ZN49_$LT$i64$u20$as$u20$core..ops..Shr$LT$i32$GT$$GT$3shr17hd4c9a26329d653efE
	.globl	_ZN52_$LT$i128$u20$as$u20$core..ops..Shr$LT$usize$GT$$GT$3shr17h772b79013356e736E
	.type	_ZN52_$LT$i128$u20$as$u20$core..ops..Shr$LT$usize$GT$$GT$3shr17h772b79013356e736E,@function
.set _ZN52_$LT$i128$u20$as$u20$core..ops..Shr$LT$usize$GT$$GT$3shr17h772b79013356e736E, _ZN50_$LT$i128$u20$as$u20$core..ops..Shr$LT$i64$GT$$GT$3shr17h6262f311ccab33d9E
	.globl	_ZN49_$LT$i128$u20$as$u20$core..ops..Shr$LT$u8$GT$$GT$3shr17hfaeab7004b495027E
	.type	_ZN49_$LT$i128$u20$as$u20$core..ops..Shr$LT$u8$GT$$GT$3shr17hfaeab7004b495027E,@function
.set _ZN49_$LT$i128$u20$as$u20$core..ops..Shr$LT$u8$GT$$GT$3shr17hfaeab7004b495027E, _ZN49_$LT$i128$u20$as$u20$core..ops..Shr$LT$i8$GT$$GT$3shr17h415774e5e51c3cfbE
	.globl	_ZN50_$LT$i128$u20$as$u20$core..ops..Shr$LT$u16$GT$$GT$3shr17h40ccfeadba01c121E
	.type	_ZN50_$LT$i128$u20$as$u20$core..ops..Shr$LT$u16$GT$$GT$3shr17h40ccfeadba01c121E,@function
.set _ZN50_$LT$i128$u20$as$u20$core..ops..Shr$LT$u16$GT$$GT$3shr17h40ccfeadba01c121E, _ZN50_$LT$i128$u20$as$u20$core..ops..Shr$LT$i16$GT$$GT$3shr17h9791ef12554373c0E
	.globl	_ZN50_$LT$i128$u20$as$u20$core..ops..Shr$LT$u32$GT$$GT$3shr17h10081fa278624f2fE
	.type	_ZN50_$LT$i128$u20$as$u20$core..ops..Shr$LT$u32$GT$$GT$3shr17h10081fa278624f2fE,@function
.set _ZN50_$LT$i128$u20$as$u20$core..ops..Shr$LT$u32$GT$$GT$3shr17h10081fa278624f2fE, _ZN50_$LT$i128$u20$as$u20$core..ops..Shr$LT$i32$GT$$GT$3shr17ha90ec4d20dceb145E
	.globl	_ZN50_$LT$i128$u20$as$u20$core..ops..Shr$LT$u64$GT$$GT$3shr17hd39d011af4a52662E
	.type	_ZN50_$LT$i128$u20$as$u20$core..ops..Shr$LT$u64$GT$$GT$3shr17hd39d011af4a52662E,@function
.set _ZN50_$LT$i128$u20$as$u20$core..ops..Shr$LT$u64$GT$$GT$3shr17hd39d011af4a52662E, _ZN50_$LT$i128$u20$as$u20$core..ops..Shr$LT$i64$GT$$GT$3shr17h6262f311ccab33d9E
	.globl	_ZN52_$LT$i128$u20$as$u20$core..ops..Shr$LT$isize$GT$$GT$3shr17h5153ae15d58591bcE
	.type	_ZN52_$LT$i128$u20$as$u20$core..ops..Shr$LT$isize$GT$$GT$3shr17h5153ae15d58591bcE,@function
.set _ZN52_$LT$i128$u20$as$u20$core..ops..Shr$LT$isize$GT$$GT$3shr17h5153ae15d58591bcE, _ZN50_$LT$i128$u20$as$u20$core..ops..Shr$LT$i64$GT$$GT$3shr17h6262f311ccab33d9E
	.globl	_ZN50_$LT$isize$u20$as$u20$core..ops..Shr$LT$u8$GT$$GT$3shr17hc33547e476096d0bE
	.type	_ZN50_$LT$isize$u20$as$u20$core..ops..Shr$LT$u8$GT$$GT$3shr17hc33547e476096d0bE,@function
.set _ZN50_$LT$isize$u20$as$u20$core..ops..Shr$LT$u8$GT$$GT$3shr17hc33547e476096d0bE, _ZN48_$LT$i64$u20$as$u20$core..ops..Shr$LT$i8$GT$$GT$3shr17hc89f437f1eb0a631E
	.globl	_ZN51_$LT$isize$u20$as$u20$core..ops..Shr$LT$u16$GT$$GT$3shr17he961c0158b6c8a2eE
	.type	_ZN51_$LT$isize$u20$as$u20$core..ops..Shr$LT$u16$GT$$GT$3shr17he961c0158b6c8a2eE,@function
.set _ZN51_$LT$isize$u20$as$u20$core..ops..Shr$LT$u16$GT$$GT$3shr17he961c0158b6c8a2eE, _ZN49_$LT$i64$u20$as$u20$core..ops..Shr$LT$i16$GT$$GT$3shr17hf69e45283918a1f1E
	.globl	_ZN51_$LT$isize$u20$as$u20$core..ops..Shr$LT$u32$GT$$GT$3shr17h184ae7f6908f784dE
	.type	_ZN51_$LT$isize$u20$as$u20$core..ops..Shr$LT$u32$GT$$GT$3shr17h184ae7f6908f784dE,@function
.set _ZN51_$LT$isize$u20$as$u20$core..ops..Shr$LT$u32$GT$$GT$3shr17h184ae7f6908f784dE, _ZN49_$LT$i64$u20$as$u20$core..ops..Shr$LT$i32$GT$$GT$3shr17hd4c9a26329d653efE
	.globl	_ZN50_$LT$isize$u20$as$u20$core..ops..Shr$LT$i8$GT$$GT$3shr17hcc6d5c6c22e8d0d2E
	.type	_ZN50_$LT$isize$u20$as$u20$core..ops..Shr$LT$i8$GT$$GT$3shr17hcc6d5c6c22e8d0d2E,@function
.set _ZN50_$LT$isize$u20$as$u20$core..ops..Shr$LT$i8$GT$$GT$3shr17hcc6d5c6c22e8d0d2E, _ZN48_$LT$i64$u20$as$u20$core..ops..Shr$LT$i8$GT$$GT$3shr17hc89f437f1eb0a631E
	.globl	_ZN51_$LT$isize$u20$as$u20$core..ops..Shr$LT$i16$GT$$GT$3shr17h1697c4a9fffc09d7E
	.type	_ZN51_$LT$isize$u20$as$u20$core..ops..Shr$LT$i16$GT$$GT$3shr17h1697c4a9fffc09d7E,@function
.set _ZN51_$LT$isize$u20$as$u20$core..ops..Shr$LT$i16$GT$$GT$3shr17h1697c4a9fffc09d7E, _ZN49_$LT$i64$u20$as$u20$core..ops..Shr$LT$i16$GT$$GT$3shr17hf69e45283918a1f1E
	.globl	_ZN51_$LT$isize$u20$as$u20$core..ops..Shr$LT$i32$GT$$GT$3shr17h63e316af5055590dE
	.type	_ZN51_$LT$isize$u20$as$u20$core..ops..Shr$LT$i32$GT$$GT$3shr17h63e316af5055590dE,@function
.set _ZN51_$LT$isize$u20$as$u20$core..ops..Shr$LT$i32$GT$$GT$3shr17h63e316af5055590dE, _ZN49_$LT$i64$u20$as$u20$core..ops..Shr$LT$i32$GT$$GT$3shr17hd4c9a26329d653efE
	.globl	_ZN47_$LT$usize$u20$as$u20$core..cmp..PartialOrd$GT$11partial_cmp17h05c916927e077222E
	.type	_ZN47_$LT$usize$u20$as$u20$core..cmp..PartialOrd$GT$11partial_cmp17h05c916927e077222E,@function
.set _ZN47_$LT$usize$u20$as$u20$core..cmp..PartialOrd$GT$11partial_cmp17h05c916927e077222E, _ZN45_$LT$u64$u20$as$u20$core..cmp..PartialOrd$GT$11partial_cmp17h8055be124af8b11bE
	.globl	_ZN47_$LT$isize$u20$as$u20$core..cmp..PartialOrd$GT$11partial_cmp17haf13f40a68a12f17E
	.type	_ZN47_$LT$isize$u20$as$u20$core..cmp..PartialOrd$GT$11partial_cmp17haf13f40a68a12f17E,@function
.set _ZN47_$LT$isize$u20$as$u20$core..cmp..PartialOrd$GT$11partial_cmp17haf13f40a68a12f17E, _ZN45_$LT$i64$u20$as$u20$core..cmp..PartialOrd$GT$11partial_cmp17h4d2fdd84c44ad7e0E
	.globl	_ZN40_$LT$usize$u20$as$u20$core..ops..Sub$GT$3sub17hf50de4ccd6c27f68E
	.type	_ZN40_$LT$usize$u20$as$u20$core..ops..Sub$GT$3sub17hf50de4ccd6c27f68E,@function
.set _ZN40_$LT$usize$u20$as$u20$core..ops..Sub$GT$3sub17hf50de4ccd6c27f68E, _ZN38_$LT$i64$u20$as$u20$core..ops..Sub$GT$3sub17hcacee6445fa027abE
	.globl	_ZN37_$LT$u8$u20$as$u20$core..ops..Sub$GT$3sub17hccc09ff1b8f3782eE
	.type	_ZN37_$LT$u8$u20$as$u20$core..ops..Sub$GT$3sub17hccc09ff1b8f3782eE,@function
.set _ZN37_$LT$u8$u20$as$u20$core..ops..Sub$GT$3sub17hccc09ff1b8f3782eE, _ZN37_$LT$i8$u20$as$u20$core..ops..Sub$GT$3sub17h0e088b09818bf0e5E
	.globl	_ZN38_$LT$u16$u20$as$u20$core..ops..Sub$GT$3sub17h35bebc0f7c01b2e6E
	.type	_ZN38_$LT$u16$u20$as$u20$core..ops..Sub$GT$3sub17h35bebc0f7c01b2e6E,@function
.set _ZN38_$LT$u16$u20$as$u20$core..ops..Sub$GT$3sub17h35bebc0f7c01b2e6E, _ZN38_$LT$i16$u20$as$u20$core..ops..Sub$GT$3sub17h6ea3050b03fca32bE
	.globl	_ZN38_$LT$u32$u20$as$u20$core..ops..Sub$GT$3sub17hdac0db370327d023E
	.type	_ZN38_$LT$u32$u20$as$u20$core..ops..Sub$GT$3sub17hdac0db370327d023E,@function
.set _ZN38_$LT$u32$u20$as$u20$core..ops..Sub$GT$3sub17hdac0db370327d023E, _ZN38_$LT$i32$u20$as$u20$core..ops..Sub$GT$3sub17h6722b638be1085a5E
	.globl	_ZN38_$LT$u64$u20$as$u20$core..ops..Sub$GT$3sub17h6d631e6b34aa3f90E
	.type	_ZN38_$LT$u64$u20$as$u20$core..ops..Sub$GT$3sub17h6d631e6b34aa3f90E,@function
.set _ZN38_$LT$u64$u20$as$u20$core..ops..Sub$GT$3sub17h6d631e6b34aa3f90E, _ZN38_$LT$i64$u20$as$u20$core..ops..Sub$GT$3sub17hcacee6445fa027abE
	.globl	_ZN39_$LT$u128$u20$as$u20$core..ops..Sub$GT$3sub17hc07bfb1abe6b7ab3E
	.type	_ZN39_$LT$u128$u20$as$u20$core..ops..Sub$GT$3sub17hc07bfb1abe6b7ab3E,@function
.set _ZN39_$LT$u128$u20$as$u20$core..ops..Sub$GT$3sub17hc07bfb1abe6b7ab3E, _ZN39_$LT$i128$u20$as$u20$core..ops..Sub$GT$3sub17h6efa8c56d447323dE
	.globl	_ZN40_$LT$isize$u20$as$u20$core..ops..Sub$GT$3sub17haf9889d7d83d39ddE
	.type	_ZN40_$LT$isize$u20$as$u20$core..ops..Sub$GT$3sub17haf9889d7d83d39ddE,@function
.set _ZN40_$LT$isize$u20$as$u20$core..ops..Sub$GT$3sub17haf9889d7d83d39ddE, _ZN38_$LT$i64$u20$as$u20$core..ops..Sub$GT$3sub17hcacee6445fa027abE
	.globl	_ZN47_$LT$u8$u20$as$u20$core..ops..Shl$LT$i8$GT$$GT$3shl17hca22ee7dd9bd6fcdE
	.type	_ZN47_$LT$u8$u20$as$u20$core..ops..Shl$LT$i8$GT$$GT$3shl17hca22ee7dd9bd6fcdE,@function
.set _ZN47_$LT$u8$u20$as$u20$core..ops..Shl$LT$i8$GT$$GT$3shl17hca22ee7dd9bd6fcdE, _ZN37_$LT$i8$u20$as$u20$core..ops..Shl$GT$3shl17hf27a59dd8421cb85E
	.globl	_ZN49_$LT$u16$u20$as$u20$core..ops..Shl$LT$i16$GT$$GT$3shl17h61606b7fcfa10ec2E
	.type	_ZN49_$LT$u16$u20$as$u20$core..ops..Shl$LT$i16$GT$$GT$3shl17h61606b7fcfa10ec2E,@function
.set _ZN49_$LT$u16$u20$as$u20$core..ops..Shl$LT$i16$GT$$GT$3shl17h61606b7fcfa10ec2E, _ZN38_$LT$i16$u20$as$u20$core..ops..Shl$GT$3shl17h8c611a0513a1e2c9E
	.globl	_ZN49_$LT$u32$u20$as$u20$core..ops..Shl$LT$i32$GT$$GT$3shl17h9d367d60dddc3483E
	.type	_ZN49_$LT$u32$u20$as$u20$core..ops..Shl$LT$i32$GT$$GT$3shl17h9d367d60dddc3483E,@function
.set _ZN49_$LT$u32$u20$as$u20$core..ops..Shl$LT$i32$GT$$GT$3shl17h9d367d60dddc3483E, _ZN38_$LT$i32$u20$as$u20$core..ops..Shl$GT$3shl17hd836ee3fd4399e5fE
	.globl	_ZN51_$LT$u64$u20$as$u20$core..ops..Shl$LT$usize$GT$$GT$3shl17hb75df54f862be257E
	.type	_ZN51_$LT$u64$u20$as$u20$core..ops..Shl$LT$usize$GT$$GT$3shl17hb75df54f862be257E,@function
.set _ZN51_$LT$u64$u20$as$u20$core..ops..Shl$LT$usize$GT$$GT$3shl17hb75df54f862be257E, _ZN38_$LT$i64$u20$as$u20$core..ops..Shl$GT$3shl17h26e3a4f3bebea5b2E
	.globl	_ZN49_$LT$u64$u20$as$u20$core..ops..Shl$LT$i64$GT$$GT$3shl17h7b3fba480ad97a9eE
	.type	_ZN49_$LT$u64$u20$as$u20$core..ops..Shl$LT$i64$GT$$GT$3shl17h7b3fba480ad97a9eE,@function
.set _ZN49_$LT$u64$u20$as$u20$core..ops..Shl$LT$i64$GT$$GT$3shl17h7b3fba480ad97a9eE, _ZN38_$LT$i64$u20$as$u20$core..ops..Shl$GT$3shl17h26e3a4f3bebea5b2E
	.globl	_ZN51_$LT$u64$u20$as$u20$core..ops..Shl$LT$isize$GT$$GT$3shl17hd480e02f7086bebaE
	.type	_ZN51_$LT$u64$u20$as$u20$core..ops..Shl$LT$isize$GT$$GT$3shl17hd480e02f7086bebaE,@function
.set _ZN51_$LT$u64$u20$as$u20$core..ops..Shl$LT$isize$GT$$GT$3shl17hd480e02f7086bebaE, _ZN38_$LT$i64$u20$as$u20$core..ops..Shl$GT$3shl17h26e3a4f3bebea5b2E
	.globl	_ZN51_$LT$u128$u20$as$u20$core..ops..Shl$LT$i128$GT$$GT$3shl17h4107e8c48e9ae92fE
	.type	_ZN51_$LT$u128$u20$as$u20$core..ops..Shl$LT$i128$GT$$GT$3shl17h4107e8c48e9ae92fE,@function
.set _ZN51_$LT$u128$u20$as$u20$core..ops..Shl$LT$i128$GT$$GT$3shl17h4107e8c48e9ae92fE, _ZN39_$LT$i128$u20$as$u20$core..ops..Shl$GT$3shl17ha6504058d14a6dbdE
	.globl	_ZN51_$LT$usize$u20$as$u20$core..ops..Shl$LT$u64$GT$$GT$3shl17h0eb82e42766ef97cE
	.type	_ZN51_$LT$usize$u20$as$u20$core..ops..Shl$LT$u64$GT$$GT$3shl17h0eb82e42766ef97cE,@function
.set _ZN51_$LT$usize$u20$as$u20$core..ops..Shl$LT$u64$GT$$GT$3shl17h0eb82e42766ef97cE, _ZN38_$LT$i64$u20$as$u20$core..ops..Shl$GT$3shl17h26e3a4f3bebea5b2E
	.globl	_ZN40_$LT$usize$u20$as$u20$core..ops..Shl$GT$3shl17h298d76576a44817eE
	.type	_ZN40_$LT$usize$u20$as$u20$core..ops..Shl$GT$3shl17h298d76576a44817eE,@function
.set _ZN40_$LT$usize$u20$as$u20$core..ops..Shl$GT$3shl17h298d76576a44817eE, _ZN38_$LT$i64$u20$as$u20$core..ops..Shl$GT$3shl17h26e3a4f3bebea5b2E
	.globl	_ZN51_$LT$usize$u20$as$u20$core..ops..Shl$LT$i64$GT$$GT$3shl17h5752e1d987602b87E
	.type	_ZN51_$LT$usize$u20$as$u20$core..ops..Shl$LT$i64$GT$$GT$3shl17h5752e1d987602b87E,@function
.set _ZN51_$LT$usize$u20$as$u20$core..ops..Shl$LT$i64$GT$$GT$3shl17h5752e1d987602b87E, _ZN38_$LT$i64$u20$as$u20$core..ops..Shl$GT$3shl17h26e3a4f3bebea5b2E
	.globl	_ZN53_$LT$usize$u20$as$u20$core..ops..Shl$LT$isize$GT$$GT$3shl17h2a48b2a4c05dea21E
	.type	_ZN53_$LT$usize$u20$as$u20$core..ops..Shl$LT$isize$GT$$GT$3shl17h2a48b2a4c05dea21E,@function
.set _ZN53_$LT$usize$u20$as$u20$core..ops..Shl$LT$isize$GT$$GT$3shl17h2a48b2a4c05dea21E, _ZN38_$LT$i64$u20$as$u20$core..ops..Shl$GT$3shl17h26e3a4f3bebea5b2E
	.globl	_ZN47_$LT$i8$u20$as$u20$core..ops..Shl$LT$u8$GT$$GT$3shl17hd39fffe26383d5baE
	.type	_ZN47_$LT$i8$u20$as$u20$core..ops..Shl$LT$u8$GT$$GT$3shl17hd39fffe26383d5baE,@function
.set _ZN47_$LT$i8$u20$as$u20$core..ops..Shl$LT$u8$GT$$GT$3shl17hd39fffe26383d5baE, _ZN37_$LT$i8$u20$as$u20$core..ops..Shl$GT$3shl17hf27a59dd8421cb85E
	.globl	_ZN37_$LT$u8$u20$as$u20$core..ops..Shl$GT$3shl17he85195c8a5ccc380E
	.type	_ZN37_$LT$u8$u20$as$u20$core..ops..Shl$GT$3shl17he85195c8a5ccc380E,@function
.set _ZN37_$LT$u8$u20$as$u20$core..ops..Shl$GT$3shl17he85195c8a5ccc380E, _ZN37_$LT$i8$u20$as$u20$core..ops..Shl$GT$3shl17hf27a59dd8421cb85E
	.globl	_ZN49_$LT$i16$u20$as$u20$core..ops..Shl$LT$u16$GT$$GT$3shl17hf0398831811b6d36E
	.type	_ZN49_$LT$i16$u20$as$u20$core..ops..Shl$LT$u16$GT$$GT$3shl17hf0398831811b6d36E,@function
.set _ZN49_$LT$i16$u20$as$u20$core..ops..Shl$LT$u16$GT$$GT$3shl17hf0398831811b6d36E, _ZN38_$LT$i16$u20$as$u20$core..ops..Shl$GT$3shl17h8c611a0513a1e2c9E
	.globl	_ZN38_$LT$u16$u20$as$u20$core..ops..Shl$GT$3shl17h21a62f97130ea504E
	.type	_ZN38_$LT$u16$u20$as$u20$core..ops..Shl$GT$3shl17h21a62f97130ea504E,@function
.set _ZN38_$LT$u16$u20$as$u20$core..ops..Shl$GT$3shl17h21a62f97130ea504E, _ZN38_$LT$i16$u20$as$u20$core..ops..Shl$GT$3shl17h8c611a0513a1e2c9E
	.globl	_ZN49_$LT$i32$u20$as$u20$core..ops..Shl$LT$u32$GT$$GT$3shl17h29c98c271ad91f13E
	.type	_ZN49_$LT$i32$u20$as$u20$core..ops..Shl$LT$u32$GT$$GT$3shl17h29c98c271ad91f13E,@function
.set _ZN49_$LT$i32$u20$as$u20$core..ops..Shl$LT$u32$GT$$GT$3shl17h29c98c271ad91f13E, _ZN38_$LT$i32$u20$as$u20$core..ops..Shl$GT$3shl17hd836ee3fd4399e5fE
	.globl	_ZN38_$LT$u32$u20$as$u20$core..ops..Shl$GT$3shl17h5c8ce3fc392e8f4dE
	.type	_ZN38_$LT$u32$u20$as$u20$core..ops..Shl$GT$3shl17h5c8ce3fc392e8f4dE,@function
.set _ZN38_$LT$u32$u20$as$u20$core..ops..Shl$GT$3shl17h5c8ce3fc392e8f4dE, _ZN38_$LT$i32$u20$as$u20$core..ops..Shl$GT$3shl17hd836ee3fd4399e5fE
	.globl	_ZN49_$LT$i64$u20$as$u20$core..ops..Shl$LT$u64$GT$$GT$3shl17h9deb53a4bea49e59E
	.type	_ZN49_$LT$i64$u20$as$u20$core..ops..Shl$LT$u64$GT$$GT$3shl17h9deb53a4bea49e59E,@function
.set _ZN49_$LT$i64$u20$as$u20$core..ops..Shl$LT$u64$GT$$GT$3shl17h9deb53a4bea49e59E, _ZN38_$LT$i64$u20$as$u20$core..ops..Shl$GT$3shl17h26e3a4f3bebea5b2E
	.globl	_ZN51_$LT$i64$u20$as$u20$core..ops..Shl$LT$usize$GT$$GT$3shl17h8ca0fce2b687b0c4E
	.type	_ZN51_$LT$i64$u20$as$u20$core..ops..Shl$LT$usize$GT$$GT$3shl17h8ca0fce2b687b0c4E,@function
.set _ZN51_$LT$i64$u20$as$u20$core..ops..Shl$LT$usize$GT$$GT$3shl17h8ca0fce2b687b0c4E, _ZN38_$LT$i64$u20$as$u20$core..ops..Shl$GT$3shl17h26e3a4f3bebea5b2E
	.globl	_ZN38_$LT$u64$u20$as$u20$core..ops..Shl$GT$3shl17h73a269b10e9d6ff6E
	.type	_ZN38_$LT$u64$u20$as$u20$core..ops..Shl$GT$3shl17h73a269b10e9d6ff6E,@function
.set _ZN38_$LT$u64$u20$as$u20$core..ops..Shl$GT$3shl17h73a269b10e9d6ff6E, _ZN38_$LT$i64$u20$as$u20$core..ops..Shl$GT$3shl17h26e3a4f3bebea5b2E
	.globl	_ZN51_$LT$i64$u20$as$u20$core..ops..Shl$LT$isize$GT$$GT$3shl17h0092b262d6f05128E
	.type	_ZN51_$LT$i64$u20$as$u20$core..ops..Shl$LT$isize$GT$$GT$3shl17h0092b262d6f05128E,@function
.set _ZN51_$LT$i64$u20$as$u20$core..ops..Shl$LT$isize$GT$$GT$3shl17h0092b262d6f05128E, _ZN38_$LT$i64$u20$as$u20$core..ops..Shl$GT$3shl17h26e3a4f3bebea5b2E
	.globl	_ZN51_$LT$i128$u20$as$u20$core..ops..Shl$LT$u128$GT$$GT$3shl17h105fc73d45d0c3b6E
	.type	_ZN51_$LT$i128$u20$as$u20$core..ops..Shl$LT$u128$GT$$GT$3shl17h105fc73d45d0c3b6E,@function
.set _ZN51_$LT$i128$u20$as$u20$core..ops..Shl$LT$u128$GT$$GT$3shl17h105fc73d45d0c3b6E, _ZN39_$LT$i128$u20$as$u20$core..ops..Shl$GT$3shl17ha6504058d14a6dbdE
	.globl	_ZN39_$LT$u128$u20$as$u20$core..ops..Shl$GT$3shl17h8822e105f8d68f84E
	.type	_ZN39_$LT$u128$u20$as$u20$core..ops..Shl$GT$3shl17h8822e105f8d68f84E,@function
.set _ZN39_$LT$u128$u20$as$u20$core..ops..Shl$GT$3shl17h8822e105f8d68f84E, _ZN39_$LT$i128$u20$as$u20$core..ops..Shl$GT$3shl17ha6504058d14a6dbdE
	.globl	_ZN51_$LT$isize$u20$as$u20$core..ops..Shl$LT$u64$GT$$GT$3shl17h2755679601c2ccd1E
	.type	_ZN51_$LT$isize$u20$as$u20$core..ops..Shl$LT$u64$GT$$GT$3shl17h2755679601c2ccd1E,@function
.set _ZN51_$LT$isize$u20$as$u20$core..ops..Shl$LT$u64$GT$$GT$3shl17h2755679601c2ccd1E, _ZN38_$LT$i64$u20$as$u20$core..ops..Shl$GT$3shl17h26e3a4f3bebea5b2E
	.globl	_ZN53_$LT$isize$u20$as$u20$core..ops..Shl$LT$usize$GT$$GT$3shl17h0e175a14a6caac5cE
	.type	_ZN53_$LT$isize$u20$as$u20$core..ops..Shl$LT$usize$GT$$GT$3shl17h0e175a14a6caac5cE,@function
.set _ZN53_$LT$isize$u20$as$u20$core..ops..Shl$LT$usize$GT$$GT$3shl17h0e175a14a6caac5cE, _ZN38_$LT$i64$u20$as$u20$core..ops..Shl$GT$3shl17h26e3a4f3bebea5b2E
	.globl	_ZN51_$LT$isize$u20$as$u20$core..ops..Shl$LT$i64$GT$$GT$3shl17h09c0b6f3bf6f6b60E
	.type	_ZN51_$LT$isize$u20$as$u20$core..ops..Shl$LT$i64$GT$$GT$3shl17h09c0b6f3bf6f6b60E,@function
.set _ZN51_$LT$isize$u20$as$u20$core..ops..Shl$LT$i64$GT$$GT$3shl17h09c0b6f3bf6f6b60E, _ZN38_$LT$i64$u20$as$u20$core..ops..Shl$GT$3shl17h26e3a4f3bebea5b2E
	.globl	_ZN40_$LT$isize$u20$as$u20$core..ops..Shl$GT$3shl17h1e7248d76d9c6e1aE
	.type	_ZN40_$LT$isize$u20$as$u20$core..ops..Shl$GT$3shl17h1e7248d76d9c6e1aE,@function
.set _ZN40_$LT$isize$u20$as$u20$core..ops..Shl$GT$3shl17h1e7248d76d9c6e1aE, _ZN38_$LT$i64$u20$as$u20$core..ops..Shl$GT$3shl17h26e3a4f3bebea5b2E
	.globl	_ZN50_$LT$u8$u20$as$u20$core..ops..Shl$LT$usize$GT$$GT$3shl17h1ac8734b982e525dE
	.type	_ZN50_$LT$u8$u20$as$u20$core..ops..Shl$LT$usize$GT$$GT$3shl17h1ac8734b982e525dE,@function
.set _ZN50_$LT$u8$u20$as$u20$core..ops..Shl$LT$usize$GT$$GT$3shl17h1ac8734b982e525dE, _ZN48_$LT$i8$u20$as$u20$core..ops..Shl$LT$i64$GT$$GT$3shl17h18cfa22c12d56657E
	.globl	_ZN48_$LT$u8$u20$as$u20$core..ops..Shl$LT$u16$GT$$GT$3shl17h25050b18258291a3E
	.type	_ZN48_$LT$u8$u20$as$u20$core..ops..Shl$LT$u16$GT$$GT$3shl17h25050b18258291a3E,@function
.set _ZN48_$LT$u8$u20$as$u20$core..ops..Shl$LT$u16$GT$$GT$3shl17h25050b18258291a3E, _ZN48_$LT$i8$u20$as$u20$core..ops..Shl$LT$i16$GT$$GT$3shl17he1f16b4d4fa55055E
	.globl	_ZN48_$LT$u8$u20$as$u20$core..ops..Shl$LT$u32$GT$$GT$3shl17hd1ee92474c67c48aE
	.type	_ZN48_$LT$u8$u20$as$u20$core..ops..Shl$LT$u32$GT$$GT$3shl17hd1ee92474c67c48aE,@function
.set _ZN48_$LT$u8$u20$as$u20$core..ops..Shl$LT$u32$GT$$GT$3shl17hd1ee92474c67c48aE, _ZN48_$LT$i8$u20$as$u20$core..ops..Shl$LT$i32$GT$$GT$3shl17hc4d117d51481b90fE
	.globl	_ZN48_$LT$u8$u20$as$u20$core..ops..Shl$LT$u64$GT$$GT$3shl17he60ecea9771f4663E
	.type	_ZN48_$LT$u8$u20$as$u20$core..ops..Shl$LT$u64$GT$$GT$3shl17he60ecea9771f4663E,@function
.set _ZN48_$LT$u8$u20$as$u20$core..ops..Shl$LT$u64$GT$$GT$3shl17he60ecea9771f4663E, _ZN48_$LT$i8$u20$as$u20$core..ops..Shl$LT$i64$GT$$GT$3shl17h18cfa22c12d56657E
	.globl	_ZN49_$LT$u8$u20$as$u20$core..ops..Shl$LT$u128$GT$$GT$3shl17h6329173821bef162E
	.type	_ZN49_$LT$u8$u20$as$u20$core..ops..Shl$LT$u128$GT$$GT$3shl17h6329173821bef162E,@function
.set _ZN49_$LT$u8$u20$as$u20$core..ops..Shl$LT$u128$GT$$GT$3shl17h6329173821bef162E, _ZN49_$LT$i8$u20$as$u20$core..ops..Shl$LT$i128$GT$$GT$3shl17h02c03f9967e1b8dfE
	.globl	_ZN50_$LT$u8$u20$as$u20$core..ops..Shl$LT$isize$GT$$GT$3shl17hb3eb69ce8f8a3b81E
	.type	_ZN50_$LT$u8$u20$as$u20$core..ops..Shl$LT$isize$GT$$GT$3shl17hb3eb69ce8f8a3b81E,@function
.set _ZN50_$LT$u8$u20$as$u20$core..ops..Shl$LT$isize$GT$$GT$3shl17hb3eb69ce8f8a3b81E, _ZN48_$LT$i8$u20$as$u20$core..ops..Shl$LT$i64$GT$$GT$3shl17h18cfa22c12d56657E
	.globl	_ZN51_$LT$u16$u20$as$u20$core..ops..Shl$LT$usize$GT$$GT$3shl17h27d9e05ba57978e8E
	.type	_ZN51_$LT$u16$u20$as$u20$core..ops..Shl$LT$usize$GT$$GT$3shl17h27d9e05ba57978e8E,@function
.set _ZN51_$LT$u16$u20$as$u20$core..ops..Shl$LT$usize$GT$$GT$3shl17h27d9e05ba57978e8E, _ZN49_$LT$i16$u20$as$u20$core..ops..Shl$LT$i64$GT$$GT$3shl17h35f0a8adb7705e09E
	.globl	_ZN49_$LT$u16$u20$as$u20$core..ops..Shl$LT$u32$GT$$GT$3shl17hf34cf716d6701788E
	.type	_ZN49_$LT$u16$u20$as$u20$core..ops..Shl$LT$u32$GT$$GT$3shl17hf34cf716d6701788E,@function
.set _ZN49_$LT$u16$u20$as$u20$core..ops..Shl$LT$u32$GT$$GT$3shl17hf34cf716d6701788E, _ZN49_$LT$i16$u20$as$u20$core..ops..Shl$LT$i32$GT$$GT$3shl17hd1d42e21c1970c23E
	.globl	_ZN49_$LT$u16$u20$as$u20$core..ops..Shl$LT$u64$GT$$GT$3shl17hdfdacf508fbcb40fE
	.type	_ZN49_$LT$u16$u20$as$u20$core..ops..Shl$LT$u64$GT$$GT$3shl17hdfdacf508fbcb40fE,@function
.set _ZN49_$LT$u16$u20$as$u20$core..ops..Shl$LT$u64$GT$$GT$3shl17hdfdacf508fbcb40fE, _ZN49_$LT$i16$u20$as$u20$core..ops..Shl$LT$i64$GT$$GT$3shl17h35f0a8adb7705e09E
	.globl	_ZN50_$LT$u16$u20$as$u20$core..ops..Shl$LT$u128$GT$$GT$3shl17h1597e3f7767a5397E
	.type	_ZN50_$LT$u16$u20$as$u20$core..ops..Shl$LT$u128$GT$$GT$3shl17h1597e3f7767a5397E,@function
.set _ZN50_$LT$u16$u20$as$u20$core..ops..Shl$LT$u128$GT$$GT$3shl17h1597e3f7767a5397E, _ZN50_$LT$i16$u20$as$u20$core..ops..Shl$LT$i128$GT$$GT$3shl17hd0ec4295ac030bd0E
	.globl	_ZN51_$LT$u16$u20$as$u20$core..ops..Shl$LT$isize$GT$$GT$3shl17h8b989f512041025fE
	.type	_ZN51_$LT$u16$u20$as$u20$core..ops..Shl$LT$isize$GT$$GT$3shl17h8b989f512041025fE,@function
.set _ZN51_$LT$u16$u20$as$u20$core..ops..Shl$LT$isize$GT$$GT$3shl17h8b989f512041025fE, _ZN49_$LT$i16$u20$as$u20$core..ops..Shl$LT$i64$GT$$GT$3shl17h35f0a8adb7705e09E
	.globl	_ZN51_$LT$u32$u20$as$u20$core..ops..Shl$LT$usize$GT$$GT$3shl17ha2ab5aa32dafa84fE
	.type	_ZN51_$LT$u32$u20$as$u20$core..ops..Shl$LT$usize$GT$$GT$3shl17ha2ab5aa32dafa84fE,@function
.set _ZN51_$LT$u32$u20$as$u20$core..ops..Shl$LT$usize$GT$$GT$3shl17ha2ab5aa32dafa84fE, _ZN49_$LT$i32$u20$as$u20$core..ops..Shl$LT$i64$GT$$GT$3shl17h53a9f0e65c48f1ccE
	.globl	_ZN49_$LT$u32$u20$as$u20$core..ops..Shl$LT$u64$GT$$GT$3shl17h764d69e4001a08feE
	.type	_ZN49_$LT$u32$u20$as$u20$core..ops..Shl$LT$u64$GT$$GT$3shl17h764d69e4001a08feE,@function
.set _ZN49_$LT$u32$u20$as$u20$core..ops..Shl$LT$u64$GT$$GT$3shl17h764d69e4001a08feE, _ZN49_$LT$i32$u20$as$u20$core..ops..Shl$LT$i64$GT$$GT$3shl17h53a9f0e65c48f1ccE
	.globl	_ZN50_$LT$u32$u20$as$u20$core..ops..Shl$LT$u128$GT$$GT$3shl17h2ebf2dff11cbb940E
	.type	_ZN50_$LT$u32$u20$as$u20$core..ops..Shl$LT$u128$GT$$GT$3shl17h2ebf2dff11cbb940E,@function
.set _ZN50_$LT$u32$u20$as$u20$core..ops..Shl$LT$u128$GT$$GT$3shl17h2ebf2dff11cbb940E, _ZN50_$LT$i32$u20$as$u20$core..ops..Shl$LT$i128$GT$$GT$3shl17haa313f55cb3a8f4aE
	.globl	_ZN51_$LT$u32$u20$as$u20$core..ops..Shl$LT$isize$GT$$GT$3shl17h2631045153cb7e7cE
	.type	_ZN51_$LT$u32$u20$as$u20$core..ops..Shl$LT$isize$GT$$GT$3shl17h2631045153cb7e7cE,@function
.set _ZN51_$LT$u32$u20$as$u20$core..ops..Shl$LT$isize$GT$$GT$3shl17h2631045153cb7e7cE, _ZN49_$LT$i32$u20$as$u20$core..ops..Shl$LT$i64$GT$$GT$3shl17h53a9f0e65c48f1ccE
	.globl	_ZN50_$LT$u64$u20$as$u20$core..ops..Shl$LT$u128$GT$$GT$3shl17h48807ace30de23c1E
	.type	_ZN50_$LT$u64$u20$as$u20$core..ops..Shl$LT$u128$GT$$GT$3shl17h48807ace30de23c1E,@function
.set _ZN50_$LT$u64$u20$as$u20$core..ops..Shl$LT$u128$GT$$GT$3shl17h48807ace30de23c1E, _ZN50_$LT$i64$u20$as$u20$core..ops..Shl$LT$i128$GT$$GT$3shl17h3d4b4fc07cfd9f36E
	.globl	_ZN52_$LT$usize$u20$as$u20$core..ops..Shl$LT$u128$GT$$GT$3shl17hf7e443cfbf5b756aE
	.type	_ZN52_$LT$usize$u20$as$u20$core..ops..Shl$LT$u128$GT$$GT$3shl17hf7e443cfbf5b756aE,@function
.set _ZN52_$LT$usize$u20$as$u20$core..ops..Shl$LT$u128$GT$$GT$3shl17hf7e443cfbf5b756aE, _ZN50_$LT$i64$u20$as$u20$core..ops..Shl$LT$i128$GT$$GT$3shl17h3d4b4fc07cfd9f36E
	.globl	_ZN52_$LT$usize$u20$as$u20$core..ops..Shl$LT$i128$GT$$GT$3shl17h035edbc5de5be6abE
	.type	_ZN52_$LT$usize$u20$as$u20$core..ops..Shl$LT$i128$GT$$GT$3shl17h035edbc5de5be6abE,@function
.set _ZN52_$LT$usize$u20$as$u20$core..ops..Shl$LT$i128$GT$$GT$3shl17h035edbc5de5be6abE, _ZN50_$LT$i64$u20$as$u20$core..ops..Shl$LT$i128$GT$$GT$3shl17h3d4b4fc07cfd9f36E
	.globl	_ZN48_$LT$u8$u20$as$u20$core..ops..Shl$LT$i16$GT$$GT$3shl17hc8d036a073f8ce1cE
	.type	_ZN48_$LT$u8$u20$as$u20$core..ops..Shl$LT$i16$GT$$GT$3shl17hc8d036a073f8ce1cE,@function
.set _ZN48_$LT$u8$u20$as$u20$core..ops..Shl$LT$i16$GT$$GT$3shl17hc8d036a073f8ce1cE, _ZN48_$LT$i8$u20$as$u20$core..ops..Shl$LT$i16$GT$$GT$3shl17he1f16b4d4fa55055E
	.globl	_ZN48_$LT$u8$u20$as$u20$core..ops..Shl$LT$i32$GT$$GT$3shl17h7252774fba6f06f5E
	.type	_ZN48_$LT$u8$u20$as$u20$core..ops..Shl$LT$i32$GT$$GT$3shl17h7252774fba6f06f5E,@function
.set _ZN48_$LT$u8$u20$as$u20$core..ops..Shl$LT$i32$GT$$GT$3shl17h7252774fba6f06f5E, _ZN48_$LT$i8$u20$as$u20$core..ops..Shl$LT$i32$GT$$GT$3shl17hc4d117d51481b90fE
	.globl	_ZN48_$LT$u8$u20$as$u20$core..ops..Shl$LT$i64$GT$$GT$3shl17h6dfd7a32bd399a78E
	.type	_ZN48_$LT$u8$u20$as$u20$core..ops..Shl$LT$i64$GT$$GT$3shl17h6dfd7a32bd399a78E,@function
.set _ZN48_$LT$u8$u20$as$u20$core..ops..Shl$LT$i64$GT$$GT$3shl17h6dfd7a32bd399a78E, _ZN48_$LT$i8$u20$as$u20$core..ops..Shl$LT$i64$GT$$GT$3shl17h18cfa22c12d56657E
	.globl	_ZN49_$LT$u8$u20$as$u20$core..ops..Shl$LT$i128$GT$$GT$3shl17hdf622eac4d2c99dbE
	.type	_ZN49_$LT$u8$u20$as$u20$core..ops..Shl$LT$i128$GT$$GT$3shl17hdf622eac4d2c99dbE,@function
.set _ZN49_$LT$u8$u20$as$u20$core..ops..Shl$LT$i128$GT$$GT$3shl17hdf622eac4d2c99dbE, _ZN49_$LT$i8$u20$as$u20$core..ops..Shl$LT$i128$GT$$GT$3shl17h02c03f9967e1b8dfE
	.globl	_ZN50_$LT$i8$u20$as$u20$core..ops..Shl$LT$usize$GT$$GT$3shl17h1fabe3376b83e9afE
	.type	_ZN50_$LT$i8$u20$as$u20$core..ops..Shl$LT$usize$GT$$GT$3shl17h1fabe3376b83e9afE,@function
.set _ZN50_$LT$i8$u20$as$u20$core..ops..Shl$LT$usize$GT$$GT$3shl17h1fabe3376b83e9afE, _ZN48_$LT$i8$u20$as$u20$core..ops..Shl$LT$i64$GT$$GT$3shl17h18cfa22c12d56657E
	.globl	_ZN48_$LT$i8$u20$as$u20$core..ops..Shl$LT$u16$GT$$GT$3shl17hefecdf79141274e4E
	.type	_ZN48_$LT$i8$u20$as$u20$core..ops..Shl$LT$u16$GT$$GT$3shl17hefecdf79141274e4E,@function
.set _ZN48_$LT$i8$u20$as$u20$core..ops..Shl$LT$u16$GT$$GT$3shl17hefecdf79141274e4E, _ZN48_$LT$i8$u20$as$u20$core..ops..Shl$LT$i16$GT$$GT$3shl17he1f16b4d4fa55055E
	.globl	_ZN48_$LT$i8$u20$as$u20$core..ops..Shl$LT$u32$GT$$GT$3shl17h2c236e69717e1a58E
	.type	_ZN48_$LT$i8$u20$as$u20$core..ops..Shl$LT$u32$GT$$GT$3shl17h2c236e69717e1a58E,@function
.set _ZN48_$LT$i8$u20$as$u20$core..ops..Shl$LT$u32$GT$$GT$3shl17h2c236e69717e1a58E, _ZN48_$LT$i8$u20$as$u20$core..ops..Shl$LT$i32$GT$$GT$3shl17hc4d117d51481b90fE
	.globl	_ZN48_$LT$i8$u20$as$u20$core..ops..Shl$LT$u64$GT$$GT$3shl17h6ba87f1a7ac2766fE
	.type	_ZN48_$LT$i8$u20$as$u20$core..ops..Shl$LT$u64$GT$$GT$3shl17h6ba87f1a7ac2766fE,@function
.set _ZN48_$LT$i8$u20$as$u20$core..ops..Shl$LT$u64$GT$$GT$3shl17h6ba87f1a7ac2766fE, _ZN48_$LT$i8$u20$as$u20$core..ops..Shl$LT$i64$GT$$GT$3shl17h18cfa22c12d56657E
	.globl	_ZN49_$LT$i8$u20$as$u20$core..ops..Shl$LT$u128$GT$$GT$3shl17h0e8e882f7fc79faaE
	.type	_ZN49_$LT$i8$u20$as$u20$core..ops..Shl$LT$u128$GT$$GT$3shl17h0e8e882f7fc79faaE,@function
.set _ZN49_$LT$i8$u20$as$u20$core..ops..Shl$LT$u128$GT$$GT$3shl17h0e8e882f7fc79faaE, _ZN49_$LT$i8$u20$as$u20$core..ops..Shl$LT$i128$GT$$GT$3shl17h02c03f9967e1b8dfE
	.globl	_ZN50_$LT$i8$u20$as$u20$core..ops..Shl$LT$isize$GT$$GT$3shl17h3dc767e5e13dca8bE
	.type	_ZN50_$LT$i8$u20$as$u20$core..ops..Shl$LT$isize$GT$$GT$3shl17h3dc767e5e13dca8bE,@function
.set _ZN50_$LT$i8$u20$as$u20$core..ops..Shl$LT$isize$GT$$GT$3shl17h3dc767e5e13dca8bE, _ZN48_$LT$i8$u20$as$u20$core..ops..Shl$LT$i64$GT$$GT$3shl17h18cfa22c12d56657E
	.globl	_ZN49_$LT$u16$u20$as$u20$core..ops..Shl$LT$i32$GT$$GT$3shl17hb50a2b388452a3cbE
	.type	_ZN49_$LT$u16$u20$as$u20$core..ops..Shl$LT$i32$GT$$GT$3shl17hb50a2b388452a3cbE,@function
.set _ZN49_$LT$u16$u20$as$u20$core..ops..Shl$LT$i32$GT$$GT$3shl17hb50a2b388452a3cbE, _ZN49_$LT$i16$u20$as$u20$core..ops..Shl$LT$i32$GT$$GT$3shl17hd1d42e21c1970c23E
	.globl	_ZN49_$LT$u16$u20$as$u20$core..ops..Shl$LT$i64$GT$$GT$3shl17h00e0196279e41584E
	.type	_ZN49_$LT$u16$u20$as$u20$core..ops..Shl$LT$i64$GT$$GT$3shl17h00e0196279e41584E,@function
.set _ZN49_$LT$u16$u20$as$u20$core..ops..Shl$LT$i64$GT$$GT$3shl17h00e0196279e41584E, _ZN49_$LT$i16$u20$as$u20$core..ops..Shl$LT$i64$GT$$GT$3shl17h35f0a8adb7705e09E
	.globl	_ZN50_$LT$u16$u20$as$u20$core..ops..Shl$LT$i128$GT$$GT$3shl17h43d521e224906fbcE
	.type	_ZN50_$LT$u16$u20$as$u20$core..ops..Shl$LT$i128$GT$$GT$3shl17h43d521e224906fbcE,@function
.set _ZN50_$LT$u16$u20$as$u20$core..ops..Shl$LT$i128$GT$$GT$3shl17h43d521e224906fbcE, _ZN50_$LT$i16$u20$as$u20$core..ops..Shl$LT$i128$GT$$GT$3shl17hd0ec4295ac030bd0E
	.globl	_ZN51_$LT$i16$u20$as$u20$core..ops..Shl$LT$usize$GT$$GT$3shl17h880877eaecb40899E
	.type	_ZN51_$LT$i16$u20$as$u20$core..ops..Shl$LT$usize$GT$$GT$3shl17h880877eaecb40899E,@function
.set _ZN51_$LT$i16$u20$as$u20$core..ops..Shl$LT$usize$GT$$GT$3shl17h880877eaecb40899E, _ZN49_$LT$i16$u20$as$u20$core..ops..Shl$LT$i64$GT$$GT$3shl17h35f0a8adb7705e09E
	.globl	_ZN49_$LT$i16$u20$as$u20$core..ops..Shl$LT$u32$GT$$GT$3shl17h25292c6167c9f1caE
	.type	_ZN49_$LT$i16$u20$as$u20$core..ops..Shl$LT$u32$GT$$GT$3shl17h25292c6167c9f1caE,@function
.set _ZN49_$LT$i16$u20$as$u20$core..ops..Shl$LT$u32$GT$$GT$3shl17h25292c6167c9f1caE, _ZN49_$LT$i16$u20$as$u20$core..ops..Shl$LT$i32$GT$$GT$3shl17hd1d42e21c1970c23E
	.globl	_ZN49_$LT$i16$u20$as$u20$core..ops..Shl$LT$u64$GT$$GT$3shl17h53cb72d6bcbf71d7E
	.type	_ZN49_$LT$i16$u20$as$u20$core..ops..Shl$LT$u64$GT$$GT$3shl17h53cb72d6bcbf71d7E,@function
.set _ZN49_$LT$i16$u20$as$u20$core..ops..Shl$LT$u64$GT$$GT$3shl17h53cb72d6bcbf71d7E, _ZN49_$LT$i16$u20$as$u20$core..ops..Shl$LT$i64$GT$$GT$3shl17h35f0a8adb7705e09E
	.globl	_ZN50_$LT$i16$u20$as$u20$core..ops..Shl$LT$u128$GT$$GT$3shl17hc51207ec9785ff87E
	.type	_ZN50_$LT$i16$u20$as$u20$core..ops..Shl$LT$u128$GT$$GT$3shl17hc51207ec9785ff87E,@function
.set _ZN50_$LT$i16$u20$as$u20$core..ops..Shl$LT$u128$GT$$GT$3shl17hc51207ec9785ff87E, _ZN50_$LT$i16$u20$as$u20$core..ops..Shl$LT$i128$GT$$GT$3shl17hd0ec4295ac030bd0E
	.globl	_ZN51_$LT$i16$u20$as$u20$core..ops..Shl$LT$isize$GT$$GT$3shl17hd75994d833d77fbaE
	.type	_ZN51_$LT$i16$u20$as$u20$core..ops..Shl$LT$isize$GT$$GT$3shl17hd75994d833d77fbaE,@function
.set _ZN51_$LT$i16$u20$as$u20$core..ops..Shl$LT$isize$GT$$GT$3shl17hd75994d833d77fbaE, _ZN49_$LT$i16$u20$as$u20$core..ops..Shl$LT$i64$GT$$GT$3shl17h35f0a8adb7705e09E
	.globl	_ZN49_$LT$u32$u20$as$u20$core..ops..Shl$LT$i64$GT$$GT$3shl17h3b43fa485238252eE
	.type	_ZN49_$LT$u32$u20$as$u20$core..ops..Shl$LT$i64$GT$$GT$3shl17h3b43fa485238252eE,@function
.set _ZN49_$LT$u32$u20$as$u20$core..ops..Shl$LT$i64$GT$$GT$3shl17h3b43fa485238252eE, _ZN49_$LT$i32$u20$as$u20$core..ops..Shl$LT$i64$GT$$GT$3shl17h53a9f0e65c48f1ccE
	.globl	_ZN50_$LT$u32$u20$as$u20$core..ops..Shl$LT$i128$GT$$GT$3shl17hf55cab2319ec451bE
	.type	_ZN50_$LT$u32$u20$as$u20$core..ops..Shl$LT$i128$GT$$GT$3shl17hf55cab2319ec451bE,@function
.set _ZN50_$LT$u32$u20$as$u20$core..ops..Shl$LT$i128$GT$$GT$3shl17hf55cab2319ec451bE, _ZN50_$LT$i32$u20$as$u20$core..ops..Shl$LT$i128$GT$$GT$3shl17haa313f55cb3a8f4aE
	.globl	_ZN51_$LT$i32$u20$as$u20$core..ops..Shl$LT$usize$GT$$GT$3shl17hc87a9d9277a20e2dE
	.type	_ZN51_$LT$i32$u20$as$u20$core..ops..Shl$LT$usize$GT$$GT$3shl17hc87a9d9277a20e2dE,@function
.set _ZN51_$LT$i32$u20$as$u20$core..ops..Shl$LT$usize$GT$$GT$3shl17hc87a9d9277a20e2dE, _ZN49_$LT$i32$u20$as$u20$core..ops..Shl$LT$i64$GT$$GT$3shl17h53a9f0e65c48f1ccE
	.globl	_ZN49_$LT$i32$u20$as$u20$core..ops..Shl$LT$u64$GT$$GT$3shl17hd2e68797a26105b3E
	.type	_ZN49_$LT$i32$u20$as$u20$core..ops..Shl$LT$u64$GT$$GT$3shl17hd2e68797a26105b3E,@function
.set _ZN49_$LT$i32$u20$as$u20$core..ops..Shl$LT$u64$GT$$GT$3shl17hd2e68797a26105b3E, _ZN49_$LT$i32$u20$as$u20$core..ops..Shl$LT$i64$GT$$GT$3shl17h53a9f0e65c48f1ccE
	.globl	_ZN50_$LT$i32$u20$as$u20$core..ops..Shl$LT$u128$GT$$GT$3shl17hda09b8353ca79d9cE
	.type	_ZN50_$LT$i32$u20$as$u20$core..ops..Shl$LT$u128$GT$$GT$3shl17hda09b8353ca79d9cE,@function
.set _ZN50_$LT$i32$u20$as$u20$core..ops..Shl$LT$u128$GT$$GT$3shl17hda09b8353ca79d9cE, _ZN50_$LT$i32$u20$as$u20$core..ops..Shl$LT$i128$GT$$GT$3shl17haa313f55cb3a8f4aE
	.globl	_ZN51_$LT$i32$u20$as$u20$core..ops..Shl$LT$isize$GT$$GT$3shl17hd7ffd1594b79c9f7E
	.type	_ZN51_$LT$i32$u20$as$u20$core..ops..Shl$LT$isize$GT$$GT$3shl17hd7ffd1594b79c9f7E,@function
.set _ZN51_$LT$i32$u20$as$u20$core..ops..Shl$LT$isize$GT$$GT$3shl17hd7ffd1594b79c9f7E, _ZN49_$LT$i32$u20$as$u20$core..ops..Shl$LT$i64$GT$$GT$3shl17h53a9f0e65c48f1ccE
	.globl	_ZN50_$LT$u64$u20$as$u20$core..ops..Shl$LT$i128$GT$$GT$3shl17hab99637956498fa2E
	.type	_ZN50_$LT$u64$u20$as$u20$core..ops..Shl$LT$i128$GT$$GT$3shl17hab99637956498fa2E,@function
.set _ZN50_$LT$u64$u20$as$u20$core..ops..Shl$LT$i128$GT$$GT$3shl17hab99637956498fa2E, _ZN50_$LT$i64$u20$as$u20$core..ops..Shl$LT$i128$GT$$GT$3shl17h3d4b4fc07cfd9f36E
	.globl	_ZN50_$LT$i64$u20$as$u20$core..ops..Shl$LT$u128$GT$$GT$3shl17hb64d8a1af9fd8c08E
	.type	_ZN50_$LT$i64$u20$as$u20$core..ops..Shl$LT$u128$GT$$GT$3shl17hb64d8a1af9fd8c08E,@function
.set _ZN50_$LT$i64$u20$as$u20$core..ops..Shl$LT$u128$GT$$GT$3shl17hb64d8a1af9fd8c08E, _ZN50_$LT$i64$u20$as$u20$core..ops..Shl$LT$i128$GT$$GT$3shl17h3d4b4fc07cfd9f36E
	.globl	_ZN52_$LT$isize$u20$as$u20$core..ops..Shl$LT$u128$GT$$GT$3shl17hfb976b5d08255181E
	.type	_ZN52_$LT$isize$u20$as$u20$core..ops..Shl$LT$u128$GT$$GT$3shl17hfb976b5d08255181E,@function
.set _ZN52_$LT$isize$u20$as$u20$core..ops..Shl$LT$u128$GT$$GT$3shl17hfb976b5d08255181E, _ZN50_$LT$i64$u20$as$u20$core..ops..Shl$LT$i128$GT$$GT$3shl17h3d4b4fc07cfd9f36E
	.globl	_ZN52_$LT$isize$u20$as$u20$core..ops..Shl$LT$i128$GT$$GT$3shl17h678e34e01f77b870E
	.type	_ZN52_$LT$isize$u20$as$u20$core..ops..Shl$LT$i128$GT$$GT$3shl17h678e34e01f77b870E,@function
.set _ZN52_$LT$isize$u20$as$u20$core..ops..Shl$LT$i128$GT$$GT$3shl17h678e34e01f77b870E, _ZN50_$LT$i64$u20$as$u20$core..ops..Shl$LT$i128$GT$$GT$3shl17h3d4b4fc07cfd9f36E
	.globl	_ZN41_$LT$$RF$u8$u20$as$u20$core..ops..Not$GT$3not17h31f9d6f1dd1bc430E
	.type	_ZN41_$LT$$RF$u8$u20$as$u20$core..ops..Not$GT$3not17h31f9d6f1dd1bc430E,@function
.set _ZN41_$LT$$RF$u8$u20$as$u20$core..ops..Not$GT$3not17h31f9d6f1dd1bc430E, _ZN41_$LT$$RF$i8$u20$as$u20$core..ops..Not$GT$3not17hda121f139ef718e5E
	.globl	_ZN42_$LT$$RF$u16$u20$as$u20$core..ops..Not$GT$3not17h05a261fb3cd9e7f4E
	.type	_ZN42_$LT$$RF$u16$u20$as$u20$core..ops..Not$GT$3not17h05a261fb3cd9e7f4E,@function
.set _ZN42_$LT$$RF$u16$u20$as$u20$core..ops..Not$GT$3not17h05a261fb3cd9e7f4E, _ZN42_$LT$$RF$i16$u20$as$u20$core..ops..Not$GT$3not17ha5eac01115f13a49E
	.globl	_ZN42_$LT$$RF$u32$u20$as$u20$core..ops..Not$GT$3not17hc23436c83abecab6E
	.type	_ZN42_$LT$$RF$u32$u20$as$u20$core..ops..Not$GT$3not17hc23436c83abecab6E,@function
.set _ZN42_$LT$$RF$u32$u20$as$u20$core..ops..Not$GT$3not17hc23436c83abecab6E, _ZN42_$LT$$RF$i32$u20$as$u20$core..ops..Not$GT$3not17h990a1f6b4e69b352E
	.globl	_ZN42_$LT$$RF$u64$u20$as$u20$core..ops..Not$GT$3not17hc77ba3e3a06ad46dE
	.type	_ZN42_$LT$$RF$u64$u20$as$u20$core..ops..Not$GT$3not17hc77ba3e3a06ad46dE,@function
.set _ZN42_$LT$$RF$u64$u20$as$u20$core..ops..Not$GT$3not17hc77ba3e3a06ad46dE, _ZN42_$LT$$RF$i64$u20$as$u20$core..ops..Not$GT$3not17hd44d3743c2d2b603E
	.globl	_ZN44_$LT$$RF$usize$u20$as$u20$core..ops..Not$GT$3not17h9c21b290fd90dd48E
	.type	_ZN44_$LT$$RF$usize$u20$as$u20$core..ops..Not$GT$3not17h9c21b290fd90dd48E,@function
.set _ZN44_$LT$$RF$usize$u20$as$u20$core..ops..Not$GT$3not17h9c21b290fd90dd48E, _ZN42_$LT$$RF$i64$u20$as$u20$core..ops..Not$GT$3not17hd44d3743c2d2b603E
	.globl	_ZN44_$LT$$RF$isize$u20$as$u20$core..ops..Not$GT$3not17h1129b0ef4d2b0269E
	.type	_ZN44_$LT$$RF$isize$u20$as$u20$core..ops..Not$GT$3not17h1129b0ef4d2b0269E,@function
.set _ZN44_$LT$$RF$isize$u20$as$u20$core..ops..Not$GT$3not17h1129b0ef4d2b0269E, _ZN42_$LT$$RF$i64$u20$as$u20$core..ops..Not$GT$3not17hd44d3743c2d2b603E
	.globl	_ZN43_$LT$$RF$u128$u20$as$u20$core..ops..Not$GT$3not17ha55de2df25ee44dbE
	.type	_ZN43_$LT$$RF$u128$u20$as$u20$core..ops..Not$GT$3not17ha55de2df25ee44dbE,@function
.set _ZN43_$LT$$RF$u128$u20$as$u20$core..ops..Not$GT$3not17ha55de2df25ee44dbE, _ZN43_$LT$$RF$i128$u20$as$u20$core..ops..Not$GT$3not17hff16e47cdd14c64bE
	.globl	_ZN44_$LT$$RF$isize$u20$as$u20$core..ops..Div$GT$3div17hc1b7e3096f74e267E
	.type	_ZN44_$LT$$RF$isize$u20$as$u20$core..ops..Div$GT$3div17hc1b7e3096f74e267E,@function
.set _ZN44_$LT$$RF$isize$u20$as$u20$core..ops..Div$GT$3div17hc1b7e3096f74e267E, _ZN42_$LT$$RF$i64$u20$as$u20$core..ops..Div$GT$3div17hb78b42426312f778E
	.globl	_ZN44_$LT$$RF$isize$u20$as$u20$core..ops..Rem$GT$3rem17hf176d2c8bcbcd512E
	.type	_ZN44_$LT$$RF$isize$u20$as$u20$core..ops..Rem$GT$3rem17hf176d2c8bcbcd512E,@function
.set _ZN44_$LT$$RF$isize$u20$as$u20$core..ops..Rem$GT$3rem17hf176d2c8bcbcd512E, _ZN42_$LT$$RF$i64$u20$as$u20$core..ops..Rem$GT$3rem17hc3532f51d7c4bb06E
	.globl	_ZN40_$LT$usize$u20$as$u20$core..ops..Mul$GT$3mul17h2ce689556833ea5dE
	.type	_ZN40_$LT$usize$u20$as$u20$core..ops..Mul$GT$3mul17h2ce689556833ea5dE,@function
.set _ZN40_$LT$usize$u20$as$u20$core..ops..Mul$GT$3mul17h2ce689556833ea5dE, _ZN38_$LT$i64$u20$as$u20$core..ops..Mul$GT$3mul17hacc65c31b697cf97E
	.globl	_ZN37_$LT$u8$u20$as$u20$core..ops..Mul$GT$3mul17h6726323585d1d450E
	.type	_ZN37_$LT$u8$u20$as$u20$core..ops..Mul$GT$3mul17h6726323585d1d450E,@function
.set _ZN37_$LT$u8$u20$as$u20$core..ops..Mul$GT$3mul17h6726323585d1d450E, _ZN37_$LT$i8$u20$as$u20$core..ops..Mul$GT$3mul17h1627d654f3df1a17E
	.globl	_ZN38_$LT$u16$u20$as$u20$core..ops..Mul$GT$3mul17h02b047396cfad6e6E
	.type	_ZN38_$LT$u16$u20$as$u20$core..ops..Mul$GT$3mul17h02b047396cfad6e6E,@function
.set _ZN38_$LT$u16$u20$as$u20$core..ops..Mul$GT$3mul17h02b047396cfad6e6E, _ZN38_$LT$i16$u20$as$u20$core..ops..Mul$GT$3mul17h7301c16299193182E
	.globl	_ZN38_$LT$u32$u20$as$u20$core..ops..Mul$GT$3mul17hbfd17d57ffc4df56E
	.type	_ZN38_$LT$u32$u20$as$u20$core..ops..Mul$GT$3mul17hbfd17d57ffc4df56E,@function
.set _ZN38_$LT$u32$u20$as$u20$core..ops..Mul$GT$3mul17hbfd17d57ffc4df56E, _ZN38_$LT$i32$u20$as$u20$core..ops..Mul$GT$3mul17h3274af1a78e9414cE
	.globl	_ZN38_$LT$u64$u20$as$u20$core..ops..Mul$GT$3mul17h8cb13e98c2a916d7E
	.type	_ZN38_$LT$u64$u20$as$u20$core..ops..Mul$GT$3mul17h8cb13e98c2a916d7E,@function
.set _ZN38_$LT$u64$u20$as$u20$core..ops..Mul$GT$3mul17h8cb13e98c2a916d7E, _ZN38_$LT$i64$u20$as$u20$core..ops..Mul$GT$3mul17hacc65c31b697cf97E
	.globl	_ZN39_$LT$u128$u20$as$u20$core..ops..Mul$GT$3mul17heb6ecda87bcaea74E
	.type	_ZN39_$LT$u128$u20$as$u20$core..ops..Mul$GT$3mul17heb6ecda87bcaea74E,@function
.set _ZN39_$LT$u128$u20$as$u20$core..ops..Mul$GT$3mul17heb6ecda87bcaea74E, _ZN39_$LT$i128$u20$as$u20$core..ops..Mul$GT$3mul17h8e91451548ad13acE
	.globl	_ZN40_$LT$isize$u20$as$u20$core..ops..Mul$GT$3mul17h622fded8cefe514bE
	.type	_ZN40_$LT$isize$u20$as$u20$core..ops..Mul$GT$3mul17h622fded8cefe514bE,@function
.set _ZN40_$LT$isize$u20$as$u20$core..ops..Mul$GT$3mul17h622fded8cefe514bE, _ZN38_$LT$i64$u20$as$u20$core..ops..Mul$GT$3mul17hacc65c31b697cf97E
	.globl	_ZN40_$LT$usize$u20$as$u20$core..ops..Add$GT$3add17h97bbbaa9feb469a2E
	.type	_ZN40_$LT$usize$u20$as$u20$core..ops..Add$GT$3add17h97bbbaa9feb469a2E,@function
.set _ZN40_$LT$usize$u20$as$u20$core..ops..Add$GT$3add17h97bbbaa9feb469a2E, _ZN38_$LT$i64$u20$as$u20$core..ops..Add$GT$3add17h83f1dbb95b1fd1eeE
	.globl	_ZN37_$LT$u8$u20$as$u20$core..ops..Add$GT$3add17hc33da67b4692fcb9E
	.type	_ZN37_$LT$u8$u20$as$u20$core..ops..Add$GT$3add17hc33da67b4692fcb9E,@function
.set _ZN37_$LT$u8$u20$as$u20$core..ops..Add$GT$3add17hc33da67b4692fcb9E, _ZN37_$LT$i8$u20$as$u20$core..ops..Add$GT$3add17h760993ef1e14f468E
	.globl	_ZN38_$LT$u16$u20$as$u20$core..ops..Add$GT$3add17hd82af61922506604E
	.type	_ZN38_$LT$u16$u20$as$u20$core..ops..Add$GT$3add17hd82af61922506604E,@function
.set _ZN38_$LT$u16$u20$as$u20$core..ops..Add$GT$3add17hd82af61922506604E, _ZN38_$LT$i16$u20$as$u20$core..ops..Add$GT$3add17hb4979765832e2c68E
	.globl	_ZN38_$LT$u32$u20$as$u20$core..ops..Add$GT$3add17h008ad26115815637E
	.type	_ZN38_$LT$u32$u20$as$u20$core..ops..Add$GT$3add17h008ad26115815637E,@function
.set _ZN38_$LT$u32$u20$as$u20$core..ops..Add$GT$3add17h008ad26115815637E, _ZN38_$LT$i32$u20$as$u20$core..ops..Add$GT$3add17h2c24169c59402d47E
	.globl	_ZN38_$LT$u64$u20$as$u20$core..ops..Add$GT$3add17heda78c1277c040edE
	.type	_ZN38_$LT$u64$u20$as$u20$core..ops..Add$GT$3add17heda78c1277c040edE,@function
.set _ZN38_$LT$u64$u20$as$u20$core..ops..Add$GT$3add17heda78c1277c040edE, _ZN38_$LT$i64$u20$as$u20$core..ops..Add$GT$3add17h83f1dbb95b1fd1eeE
	.globl	_ZN39_$LT$u128$u20$as$u20$core..ops..Add$GT$3add17h346c06f89b0cd3b6E
	.type	_ZN39_$LT$u128$u20$as$u20$core..ops..Add$GT$3add17h346c06f89b0cd3b6E,@function
.set _ZN39_$LT$u128$u20$as$u20$core..ops..Add$GT$3add17h346c06f89b0cd3b6E, _ZN39_$LT$i128$u20$as$u20$core..ops..Add$GT$3add17h3a82b177e9fce3c0E
	.globl	_ZN40_$LT$isize$u20$as$u20$core..ops..Add$GT$3add17h0a30efaf4ade6748E
	.type	_ZN40_$LT$isize$u20$as$u20$core..ops..Add$GT$3add17h0a30efaf4ade6748E,@function
.set _ZN40_$LT$isize$u20$as$u20$core..ops..Add$GT$3add17h0a30efaf4ade6748E, _ZN38_$LT$i64$u20$as$u20$core..ops..Add$GT$3add17h83f1dbb95b1fd1eeE
	.globl	_ZN47_$LT$$RF$usize$u20$as$u20$core..ops..BitAnd$GT$6bitand17h5558f2ce1d112795E
	.type	_ZN47_$LT$$RF$usize$u20$as$u20$core..ops..BitAnd$GT$6bitand17h5558f2ce1d112795E,@function
.set _ZN47_$LT$$RF$usize$u20$as$u20$core..ops..BitAnd$GT$6bitand17h5558f2ce1d112795E, _ZN45_$LT$$RF$i64$u20$as$u20$core..ops..BitAnd$GT$6bitand17h4abcc39538c691f9E
	.globl	_ZN44_$LT$$RF$u8$u20$as$u20$core..ops..BitAnd$GT$6bitand17h1e3cd47814804c04E
	.type	_ZN44_$LT$$RF$u8$u20$as$u20$core..ops..BitAnd$GT$6bitand17h1e3cd47814804c04E,@function
.set _ZN44_$LT$$RF$u8$u20$as$u20$core..ops..BitAnd$GT$6bitand17h1e3cd47814804c04E, _ZN44_$LT$$RF$i8$u20$as$u20$core..ops..BitAnd$GT$6bitand17h5fff5c0325c69f74E
	.globl	_ZN45_$LT$$RF$u16$u20$as$u20$core..ops..BitAnd$GT$6bitand17h4d24e61219c19865E
	.type	_ZN45_$LT$$RF$u16$u20$as$u20$core..ops..BitAnd$GT$6bitand17h4d24e61219c19865E,@function
.set _ZN45_$LT$$RF$u16$u20$as$u20$core..ops..BitAnd$GT$6bitand17h4d24e61219c19865E, _ZN45_$LT$$RF$i16$u20$as$u20$core..ops..BitAnd$GT$6bitand17h02cf8a2d014f76ffE
	.globl	_ZN45_$LT$$RF$u32$u20$as$u20$core..ops..BitAnd$GT$6bitand17h5093dc7ec9636727E
	.type	_ZN45_$LT$$RF$u32$u20$as$u20$core..ops..BitAnd$GT$6bitand17h5093dc7ec9636727E,@function
.set _ZN45_$LT$$RF$u32$u20$as$u20$core..ops..BitAnd$GT$6bitand17h5093dc7ec9636727E, _ZN45_$LT$$RF$i32$u20$as$u20$core..ops..BitAnd$GT$6bitand17hc2bb4c724002afd8E
	.globl	_ZN45_$LT$$RF$u64$u20$as$u20$core..ops..BitAnd$GT$6bitand17he345dca6b2acadf4E
	.type	_ZN45_$LT$$RF$u64$u20$as$u20$core..ops..BitAnd$GT$6bitand17he345dca6b2acadf4E,@function
.set _ZN45_$LT$$RF$u64$u20$as$u20$core..ops..BitAnd$GT$6bitand17he345dca6b2acadf4E, _ZN45_$LT$$RF$i64$u20$as$u20$core..ops..BitAnd$GT$6bitand17h4abcc39538c691f9E
	.globl	_ZN46_$LT$$RF$u128$u20$as$u20$core..ops..BitAnd$GT$6bitand17h1c52b9b783447c3dE
	.type	_ZN46_$LT$$RF$u128$u20$as$u20$core..ops..BitAnd$GT$6bitand17h1c52b9b783447c3dE,@function
.set _ZN46_$LT$$RF$u128$u20$as$u20$core..ops..BitAnd$GT$6bitand17h1c52b9b783447c3dE, _ZN46_$LT$$RF$i128$u20$as$u20$core..ops..BitAnd$GT$6bitand17h267ba667b31fbb19E
	.globl	_ZN47_$LT$$RF$isize$u20$as$u20$core..ops..BitAnd$GT$6bitand17h88fbb7d796ed1a29E
	.type	_ZN47_$LT$$RF$isize$u20$as$u20$core..ops..BitAnd$GT$6bitand17h88fbb7d796ed1a29E,@function
.set _ZN47_$LT$$RF$isize$u20$as$u20$core..ops..BitAnd$GT$6bitand17h88fbb7d796ed1a29E, _ZN45_$LT$$RF$i64$u20$as$u20$core..ops..BitAnd$GT$6bitand17h4abcc39538c691f9E
	.globl	_ZN44_$LT$$RF$usize$u20$as$u20$core..ops..Rem$GT$3rem17h21a91d624afe2caaE
	.type	_ZN44_$LT$$RF$usize$u20$as$u20$core..ops..Rem$GT$3rem17h21a91d624afe2caaE,@function
.set _ZN44_$LT$$RF$usize$u20$as$u20$core..ops..Rem$GT$3rem17h21a91d624afe2caaE, _ZN42_$LT$$RF$u64$u20$as$u20$core..ops..Rem$GT$3rem17hb4d80ee90f358607E
	.globl	_ZN40_$LT$usize$u20$as$u20$core..ops..Rem$GT$3rem17h7f65b787918f4885E
	.type	_ZN40_$LT$usize$u20$as$u20$core..ops..Rem$GT$3rem17h7f65b787918f4885E,@function
.set _ZN40_$LT$usize$u20$as$u20$core..ops..Rem$GT$3rem17h7f65b787918f4885E, _ZN38_$LT$u64$u20$as$u20$core..ops..Rem$GT$3rem17h0bf1f248f7966bbcE
	.globl	_ZN47_$LT$i8$u20$as$u20$core..ops..Shr$LT$u8$GT$$GT$3shr17hb28a86560b04a4d0E
	.type	_ZN47_$LT$i8$u20$as$u20$core..ops..Shr$LT$u8$GT$$GT$3shr17hb28a86560b04a4d0E,@function
.set _ZN47_$LT$i8$u20$as$u20$core..ops..Shr$LT$u8$GT$$GT$3shr17hb28a86560b04a4d0E, _ZN37_$LT$i8$u20$as$u20$core..ops..Shr$GT$3shr17h0dc51b7bd79e4ed8E
	.globl	_ZN49_$LT$i16$u20$as$u20$core..ops..Shr$LT$u16$GT$$GT$3shr17h3ce700bd26a7a7a2E
	.type	_ZN49_$LT$i16$u20$as$u20$core..ops..Shr$LT$u16$GT$$GT$3shr17h3ce700bd26a7a7a2E,@function
.set _ZN49_$LT$i16$u20$as$u20$core..ops..Shr$LT$u16$GT$$GT$3shr17h3ce700bd26a7a7a2E, _ZN38_$LT$i16$u20$as$u20$core..ops..Shr$GT$3shr17heb5cc130426a2f90E
	.globl	_ZN49_$LT$i32$u20$as$u20$core..ops..Shr$LT$u32$GT$$GT$3shr17h9468b492c8803737E
	.type	_ZN49_$LT$i32$u20$as$u20$core..ops..Shr$LT$u32$GT$$GT$3shr17h9468b492c8803737E,@function
.set _ZN49_$LT$i32$u20$as$u20$core..ops..Shr$LT$u32$GT$$GT$3shr17h9468b492c8803737E, _ZN38_$LT$i32$u20$as$u20$core..ops..Shr$GT$3shr17h557b09258e68e3f4E
	.globl	_ZN51_$LT$i64$u20$as$u20$core..ops..Shr$LT$usize$GT$$GT$3shr17h17231b26d84f2499E
	.type	_ZN51_$LT$i64$u20$as$u20$core..ops..Shr$LT$usize$GT$$GT$3shr17h17231b26d84f2499E,@function
.set _ZN51_$LT$i64$u20$as$u20$core..ops..Shr$LT$usize$GT$$GT$3shr17h17231b26d84f2499E, _ZN38_$LT$i64$u20$as$u20$core..ops..Shr$GT$3shr17h94d33dd5f49a874cE
	.globl	_ZN49_$LT$i64$u20$as$u20$core..ops..Shr$LT$u64$GT$$GT$3shr17h73070157f214e645E
	.type	_ZN49_$LT$i64$u20$as$u20$core..ops..Shr$LT$u64$GT$$GT$3shr17h73070157f214e645E,@function
.set _ZN49_$LT$i64$u20$as$u20$core..ops..Shr$LT$u64$GT$$GT$3shr17h73070157f214e645E, _ZN38_$LT$i64$u20$as$u20$core..ops..Shr$GT$3shr17h94d33dd5f49a874cE
	.globl	_ZN51_$LT$i64$u20$as$u20$core..ops..Shr$LT$isize$GT$$GT$3shr17h7604d1609814ddf3E
	.type	_ZN51_$LT$i64$u20$as$u20$core..ops..Shr$LT$isize$GT$$GT$3shr17h7604d1609814ddf3E,@function
.set _ZN51_$LT$i64$u20$as$u20$core..ops..Shr$LT$isize$GT$$GT$3shr17h7604d1609814ddf3E, _ZN38_$LT$i64$u20$as$u20$core..ops..Shr$GT$3shr17h94d33dd5f49a874cE
	.globl	_ZN51_$LT$i128$u20$as$u20$core..ops..Shr$LT$u128$GT$$GT$3shr17h42d321a122bdfcdcE
	.type	_ZN51_$LT$i128$u20$as$u20$core..ops..Shr$LT$u128$GT$$GT$3shr17h42d321a122bdfcdcE,@function
.set _ZN51_$LT$i128$u20$as$u20$core..ops..Shr$LT$u128$GT$$GT$3shr17h42d321a122bdfcdcE, _ZN39_$LT$i128$u20$as$u20$core..ops..Shr$GT$3shr17h4747f381be3a0f39E
	.globl	_ZN51_$LT$isize$u20$as$u20$core..ops..Shr$LT$u64$GT$$GT$3shr17h042f1641e07bea49E
	.type	_ZN51_$LT$isize$u20$as$u20$core..ops..Shr$LT$u64$GT$$GT$3shr17h042f1641e07bea49E,@function
.set _ZN51_$LT$isize$u20$as$u20$core..ops..Shr$LT$u64$GT$$GT$3shr17h042f1641e07bea49E, _ZN38_$LT$i64$u20$as$u20$core..ops..Shr$GT$3shr17h94d33dd5f49a874cE
	.globl	_ZN53_$LT$isize$u20$as$u20$core..ops..Shr$LT$usize$GT$$GT$3shr17h57ebb19c81524094E
	.type	_ZN53_$LT$isize$u20$as$u20$core..ops..Shr$LT$usize$GT$$GT$3shr17h57ebb19c81524094E,@function
.set _ZN53_$LT$isize$u20$as$u20$core..ops..Shr$LT$usize$GT$$GT$3shr17h57ebb19c81524094E, _ZN38_$LT$i64$u20$as$u20$core..ops..Shr$GT$3shr17h94d33dd5f49a874cE
	.globl	_ZN51_$LT$isize$u20$as$u20$core..ops..Shr$LT$i64$GT$$GT$3shr17h7b065590a6cb2795E
	.type	_ZN51_$LT$isize$u20$as$u20$core..ops..Shr$LT$i64$GT$$GT$3shr17h7b065590a6cb2795E,@function
.set _ZN51_$LT$isize$u20$as$u20$core..ops..Shr$LT$i64$GT$$GT$3shr17h7b065590a6cb2795E, _ZN38_$LT$i64$u20$as$u20$core..ops..Shr$GT$3shr17h94d33dd5f49a874cE
	.globl	_ZN40_$LT$isize$u20$as$u20$core..ops..Shr$GT$3shr17h78e708b7f29c60a4E
	.type	_ZN40_$LT$isize$u20$as$u20$core..ops..Shr$GT$3shr17h78e708b7f29c60a4E,@function
.set _ZN40_$LT$isize$u20$as$u20$core..ops..Shr$GT$3shr17h78e708b7f29c60a4E, _ZN38_$LT$i64$u20$as$u20$core..ops..Shr$GT$3shr17h94d33dd5f49a874cE
	.section	".note.GNU-stack","",@progbits
